ARM GAS  C:\Users\Andre\AppData\Local\Temp\cc3K62V3.s 			page 1


   1              		.cpu cortex-m3
   2              		.arch armv7-m
   3              		.fpu softvfp
   4              		.eabi_attribute 20, 1
   5              		.eabi_attribute 21, 1
   6              		.eabi_attribute 23, 3
   7              		.eabi_attribute 24, 1
   8              		.eabi_attribute 25, 1
   9              		.eabi_attribute 26, 1
  10              		.eabi_attribute 30, 1
  11              		.eabi_attribute 34, 1
  12              		.eabi_attribute 18, 4
  13              		.file	"AD7793.c"
  14              		.text
  15              	.Ltext0:
  16              		.cfi_sections	.debug_frame
  17              		.section	.text.AD7793_Init,"ax",%progbits
  18              		.align	1
  19              		.global	AD7793_Init
  20              		.syntax unified
  21              		.thumb
  22              		.thumb_func
  24              	AD7793_Init:
  25              	.LFB65:
  26              		.file 1 "Drivers/AD7793/AD7793.c"
   1:Drivers/AD7793/AD7793.c **** #include "AD7793.h"
   2:Drivers/AD7793/AD7793.c **** #include "spi.h"
   3:Drivers/AD7793/AD7793.c **** #include "gpio.h"
   4:Drivers/AD7793/AD7793.c **** 
   5:Drivers/AD7793/AD7793.c **** void AD7793_Init(void)
   6:Drivers/AD7793/AD7793.c **** {
  27              		.loc 1 6 1 view -0
  28              		.cfi_startproc
  29              		@ args = 0, pretend = 0, frame = 8
  30              		@ frame_needed = 0, uses_anonymous_args = 0
  31 0000 10B5     		push	{r4, lr}
  32              	.LCFI0:
  33              		.cfi_def_cfa_offset 8
  34              		.cfi_offset 4, -8
  35              		.cfi_offset 14, -4
  36 0002 82B0     		sub	sp, sp, #8
  37              	.LCFI1:
  38              		.cfi_def_cfa_offset 16
   7:Drivers/AD7793/AD7793.c **** 	unsigned char dataToSend[3] = {0x50, 0x00, 0x00};
  39              		.loc 1 7 2 view .LVU1
  40              		.loc 1 7 16 is_stmt 0 view .LVU2
  41 0004 0D4B     		ldr	r3, .L3
  42 0006 1B68     		ldr	r3, [r3]
  43 0008 ADF80430 		strh	r3, [sp, #4]	@ movhi
  44 000c 1B0C     		lsrs	r3, r3, #16
  45 000e 8DF80630 		strb	r3, [sp, #6]
   8:Drivers/AD7793/AD7793.c **** 
   9:Drivers/AD7793/AD7793.c ****     CS_Pin_OFF;
  46              		.loc 1 9 5 is_stmt 1 view .LVU3
  47 0012 0B4C     		ldr	r4, .L3+4
  48 0014 0022     		movs	r2, #0
  49 0016 4FF48051 		mov	r1, #4096
ARM GAS  C:\Users\Andre\AppData\Local\Temp\cc3K62V3.s 			page 2


  50 001a 2046     		mov	r0, r4
  51 001c FFF7FEFF 		bl	HAL_GPIO_WritePin
  52              	.LVL0:
  10:Drivers/AD7793/AD7793.c **** 	    HAL_SPI_Transmit(&hspi2, dataToSend, sizeof(dataToSend), 1);
  53              		.loc 1 10 6 view .LVU4
  54 0020 0123     		movs	r3, #1
  55 0022 0322     		movs	r2, #3
  56 0024 01A9     		add	r1, sp, #4
  57 0026 0748     		ldr	r0, .L3+8
  58 0028 FFF7FEFF 		bl	HAL_SPI_Transmit
  59              	.LVL1:
  11:Drivers/AD7793/AD7793.c ****     CS_Pin_ON;
  60              		.loc 1 11 5 view .LVU5
  61 002c 0122     		movs	r2, #1
  62 002e 4FF48051 		mov	r1, #4096
  63 0032 2046     		mov	r0, r4
  64 0034 FFF7FEFF 		bl	HAL_GPIO_WritePin
  65              	.LVL2:
  12:Drivers/AD7793/AD7793.c **** }
  66              		.loc 1 12 1 is_stmt 0 view .LVU6
  67 0038 02B0     		add	sp, sp, #8
  68              	.LCFI2:
  69              		.cfi_def_cfa_offset 8
  70              		@ sp needed
  71 003a 10BD     		pop	{r4, pc}
  72              	.L4:
  73              		.align	2
  74              	.L3:
  75 003c 00000000 		.word	.LANCHOR0
  76 0040 000C0140 		.word	1073810432
  77 0044 00000000 		.word	hspi2
  78              		.cfi_endproc
  79              	.LFE65:
  81              		.section	.rodata.AD7793_Reset.str1.4,"aMS",%progbits,1
  82              		.align	2
  83              	.LC1:
  84 0000 FFFFFFFF 		.ascii	"\377\377\377\377\000"
  84      00
  85              		.section	.text.AD7793_Reset,"ax",%progbits
  86              		.align	1
  87              		.global	AD7793_Reset
  88              		.syntax unified
  89              		.thumb
  90              		.thumb_func
  92              	AD7793_Reset:
  93              	.LFB66:
  13:Drivers/AD7793/AD7793.c **** 
  14:Drivers/AD7793/AD7793.c **** void AD7793_Reset(void)
  15:Drivers/AD7793/AD7793.c **** {
  94              		.loc 1 15 1 is_stmt 1 view -0
  95              		.cfi_startproc
  96              		@ args = 0, pretend = 0, frame = 8
  97              		@ frame_needed = 0, uses_anonymous_args = 0
  98 0000 10B5     		push	{r4, lr}
  99              	.LCFI3:
 100              		.cfi_def_cfa_offset 8
 101              		.cfi_offset 4, -8
ARM GAS  C:\Users\Andre\AppData\Local\Temp\cc3K62V3.s 			page 3


 102              		.cfi_offset 14, -4
 103 0002 82B0     		sub	sp, sp, #8
 104              	.LCFI4:
 105              		.cfi_def_cfa_offset 16
  16:Drivers/AD7793/AD7793.c **** 	unsigned char dataToSend[5] = {0xff, 0xff, 0xff, 0xff};
 106              		.loc 1 16 2 view .LVU8
 107              		.loc 1 16 16 is_stmt 0 view .LVU9
 108 0004 0D4B     		ldr	r3, .L7
 109 0006 93E80300 		ldm	r3, {r0, r1}
 110 000a 0090     		str	r0, [sp]
 111 000c 8DF80410 		strb	r1, [sp, #4]
  17:Drivers/AD7793/AD7793.c **** 
  18:Drivers/AD7793/AD7793.c ****     CS_Pin_OFF;
 112              		.loc 1 18 5 is_stmt 1 view .LVU10
 113 0010 0B4C     		ldr	r4, .L7+4
 114 0012 0022     		movs	r2, #0
 115 0014 4FF48051 		mov	r1, #4096
 116 0018 2046     		mov	r0, r4
 117 001a FFF7FEFF 		bl	HAL_GPIO_WritePin
 118              	.LVL3:
  19:Drivers/AD7793/AD7793.c **** 	    HAL_SPI_Transmit(&hspi2, dataToSend, sizeof(dataToSend), 1);
 119              		.loc 1 19 6 view .LVU11
 120 001e 0123     		movs	r3, #1
 121 0020 0522     		movs	r2, #5
 122 0022 6946     		mov	r1, sp
 123 0024 0748     		ldr	r0, .L7+8
 124 0026 FFF7FEFF 		bl	HAL_SPI_Transmit
 125              	.LVL4:
  20:Drivers/AD7793/AD7793.c ****     CS_Pin_ON;
 126              		.loc 1 20 5 view .LVU12
 127 002a 0122     		movs	r2, #1
 128 002c 4FF48051 		mov	r1, #4096
 129 0030 2046     		mov	r0, r4
 130 0032 FFF7FEFF 		bl	HAL_GPIO_WritePin
 131              	.LVL5:
  21:Drivers/AD7793/AD7793.c **** }
 132              		.loc 1 21 1 is_stmt 0 view .LVU13
 133 0036 02B0     		add	sp, sp, #8
 134              	.LCFI5:
 135              		.cfi_def_cfa_offset 8
 136              		@ sp needed
 137 0038 10BD     		pop	{r4, pc}
 138              	.L8:
 139 003a 00BF     		.align	2
 140              	.L7:
 141 003c 00000000 		.word	.LC1
 142 0040 000C0140 		.word	1073810432
 143 0044 00000000 		.word	hspi2
 144              		.cfi_endproc
 145              	.LFE66:
 147              		.section	.text.AD7793_Mode_Register,"ax",%progbits
 148              		.align	1
 149              		.global	AD7793_Mode_Register
 150              		.syntax unified
 151              		.thumb
 152              		.thumb_func
 154              	AD7793_Mode_Register:
ARM GAS  C:\Users\Andre\AppData\Local\Temp\cc3K62V3.s 			page 4


 155              	.LVL6:
 156              	.LFB67:
  22:Drivers/AD7793/AD7793.c **** 
  23:Drivers/AD7793/AD7793.c **** void AD7793_Mode_Register(unsigned char mode, unsigned long clksrc, unsigned long rate)
  24:Drivers/AD7793/AD7793.c **** {
 157              		.loc 1 24 1 is_stmt 1 view -0
 158              		.cfi_startproc
 159              		@ args = 0, pretend = 0, frame = 8
 160              		@ frame_needed = 0, uses_anonymous_args = 0
 161              		.loc 1 24 1 is_stmt 0 view .LVU15
 162 0000 10B5     		push	{r4, lr}
 163              	.LCFI6:
 164              		.cfi_def_cfa_offset 8
 165              		.cfi_offset 4, -8
 166              		.cfi_offset 14, -4
 167 0002 82B0     		sub	sp, sp, #8
 168              	.LCFI7:
 169              		.cfi_def_cfa_offset 16
  25:Drivers/AD7793/AD7793.c ****     unsigned char dataToSend[3] = {0x01, 0x00, 0x00};
 170              		.loc 1 25 5 is_stmt 1 view .LVU16
 171              		.loc 1 25 19 is_stmt 0 view .LVU17
 172 0004 114B     		ldr	r3, .L11
 173 0006 5B68     		ldr	r3, [r3, #4]
 174 0008 ADF80430 		strh	r3, [sp, #4]	@ movhi
 175 000c 1B0C     		lsrs	r3, r3, #16
 176 000e 8DF80630 		strb	r3, [sp, #6]
  26:Drivers/AD7793/AD7793.c ****                   dataToSend[1] = mode << 5;
 177              		.loc 1 26 19 is_stmt 1 view .LVU18
 178              		.loc 1 26 40 is_stmt 0 view .LVU19
 179 0012 4001     		lsls	r0, r0, #5
 180              	.LVL7:
 181              		.loc 1 26 33 view .LVU20
 182 0014 8DF80500 		strb	r0, [sp, #5]
  27:Drivers/AD7793/AD7793.c ****                   dataToSend[2] = (clksrc << 6) + rate;
 183              		.loc 1 27 19 is_stmt 1 view .LVU21
 184              		.loc 1 27 43 is_stmt 0 view .LVU22
 185 0018 8901     		lsls	r1, r1, #6
 186              	.LVL8:
 187              		.loc 1 27 43 view .LVU23
 188 001a C9B2     		uxtb	r1, r1
 189              		.loc 1 27 49 view .LVU24
 190 001c 1144     		add	r1, r1, r2
 191              		.loc 1 27 33 view .LVU25
 192 001e 8DF80610 		strb	r1, [sp, #6]
  28:Drivers/AD7793/AD7793.c ****     CS_Pin_OFF; 
 193              		.loc 1 28 5 is_stmt 1 view .LVU26
 194 0022 0B4C     		ldr	r4, .L11+4
 195 0024 0022     		movs	r2, #0
 196              	.LVL9:
 197              		.loc 1 28 5 is_stmt 0 view .LVU27
 198 0026 4FF48051 		mov	r1, #4096
 199 002a 2046     		mov	r0, r4
 200 002c FFF7FEFF 		bl	HAL_GPIO_WritePin
 201              	.LVL10:
  29:Drivers/AD7793/AD7793.c **** 	    HAL_SPI_Transmit(&hspi2, dataToSend, sizeof(dataToSend), 1);
 202              		.loc 1 29 6 is_stmt 1 view .LVU28
 203 0030 0123     		movs	r3, #1
ARM GAS  C:\Users\Andre\AppData\Local\Temp\cc3K62V3.s 			page 5


 204 0032 0322     		movs	r2, #3
 205 0034 01A9     		add	r1, sp, #4
 206 0036 0748     		ldr	r0, .L11+8
 207 0038 FFF7FEFF 		bl	HAL_SPI_Transmit
 208              	.LVL11:
  30:Drivers/AD7793/AD7793.c ****     CS_Pin_ON;
 209              		.loc 1 30 5 view .LVU29
 210 003c 0122     		movs	r2, #1
 211 003e 4FF48051 		mov	r1, #4096
 212 0042 2046     		mov	r0, r4
 213 0044 FFF7FEFF 		bl	HAL_GPIO_WritePin
 214              	.LVL12:
  31:Drivers/AD7793/AD7793.c **** }
 215              		.loc 1 31 1 is_stmt 0 view .LVU30
 216 0048 02B0     		add	sp, sp, #8
 217              	.LCFI8:
 218              		.cfi_def_cfa_offset 8
 219              		@ sp needed
 220 004a 10BD     		pop	{r4, pc}
 221              	.L12:
 222              		.align	2
 223              	.L11:
 224 004c 00000000 		.word	.LANCHOR0
 225 0050 000C0140 		.word	1073810432
 226 0054 00000000 		.word	hspi2
 227              		.cfi_endproc
 228              	.LFE67:
 230              		.section	.rodata.AD7793_Configuration_Register.str1.4,"aMS",%progbits,1
 231              		.align	2
 232              	.LC3:
 233 0000 10071600 		.ascii	"\020\007\026\000"
 234              		.section	.text.AD7793_Configuration_Register,"ax",%progbits
 235              		.align	1
 236              		.global	AD7793_Configuration_Register
 237              		.syntax unified
 238              		.thumb
 239              		.thumb_func
 241              	AD7793_Configuration_Register:
 242              	.LVL13:
 243              	.LFB68:
  32:Drivers/AD7793/AD7793.c **** 
  33:Drivers/AD7793/AD7793.c **** void AD7793_Configuration_Register(unsigned char vbias, unsigned char gain, unsigned char refsel, u
  34:Drivers/AD7793/AD7793.c **** {
 244              		.loc 1 34 1 is_stmt 1 view -0
 245              		.cfi_startproc
 246              		@ args = 0, pretend = 0, frame = 8
 247              		@ frame_needed = 0, uses_anonymous_args = 0
 248              		.loc 1 34 1 is_stmt 0 view .LVU32
 249 0000 10B5     		push	{r4, lr}
 250              	.LCFI9:
 251              		.cfi_def_cfa_offset 8
 252              		.cfi_offset 4, -8
 253              		.cfi_offset 14, -4
 254 0002 82B0     		sub	sp, sp, #8
 255              	.LCFI10:
 256              		.cfi_def_cfa_offset 16
  35:Drivers/AD7793/AD7793.c **** 	unsigned char dataToSend[3] = {AD7793_REG_CONF, 0x07, 0x16};
ARM GAS  C:\Users\Andre\AppData\Local\Temp\cc3K62V3.s 			page 6


 257              		.loc 1 35 2 is_stmt 1 view .LVU33
 258              		.loc 1 35 16 is_stmt 0 view .LVU34
 259 0004 0D4B     		ldr	r3, .L15
 260              	.LVL14:
 261              		.loc 1 35 16 view .LVU35
 262 0006 1B68     		ldr	r3, [r3]
 263 0008 ADF80430 		strh	r3, [sp, #4]	@ movhi
 264 000c 1B0C     		lsrs	r3, r3, #16
 265 000e 8DF80630 		strb	r3, [sp, #6]
  36:Drivers/AD7793/AD7793.c ****                   //dataToSend[1] = (vbias << 6) + gain;
  37:Drivers/AD7793/AD7793.c ****                  // dataToSend[2] = 0x10 | ((refsel << 7) + channel);
  38:Drivers/AD7793/AD7793.c ****     CS_Pin_OFF; 
 266              		.loc 1 38 5 is_stmt 1 view .LVU36
 267 0012 0B4C     		ldr	r4, .L15+4
 268 0014 0022     		movs	r2, #0
 269              	.LVL15:
 270              		.loc 1 38 5 is_stmt 0 view .LVU37
 271 0016 4FF48051 		mov	r1, #4096
 272              	.LVL16:
 273              		.loc 1 38 5 view .LVU38
 274 001a 2046     		mov	r0, r4
 275              	.LVL17:
 276              		.loc 1 38 5 view .LVU39
 277 001c FFF7FEFF 		bl	HAL_GPIO_WritePin
 278              	.LVL18:
  39:Drivers/AD7793/AD7793.c **** 	    HAL_SPI_Transmit(&hspi2, dataToSend, sizeof(dataToSend), 1);
 279              		.loc 1 39 6 is_stmt 1 view .LVU40
 280 0020 0123     		movs	r3, #1
 281 0022 0322     		movs	r2, #3
 282 0024 01A9     		add	r1, sp, #4
 283 0026 0748     		ldr	r0, .L15+8
 284 0028 FFF7FEFF 		bl	HAL_SPI_Transmit
 285              	.LVL19:
  40:Drivers/AD7793/AD7793.c ****     CS_Pin_ON;
 286              		.loc 1 40 5 view .LVU41
 287 002c 0122     		movs	r2, #1
 288 002e 4FF48051 		mov	r1, #4096
 289 0032 2046     		mov	r0, r4
 290 0034 FFF7FEFF 		bl	HAL_GPIO_WritePin
 291              	.LVL20:
  41:Drivers/AD7793/AD7793.c **** }
 292              		.loc 1 41 1 is_stmt 0 view .LVU42
 293 0038 02B0     		add	sp, sp, #8
 294              	.LCFI11:
 295              		.cfi_def_cfa_offset 8
 296              		@ sp needed
 297 003a 10BD     		pop	{r4, pc}
 298              	.L16:
 299              		.align	2
 300              	.L15:
 301 003c 00000000 		.word	.LC3
 302 0040 000C0140 		.word	1073810432
 303 0044 00000000 		.word	hspi2
 304              		.cfi_endproc
 305              	.LFE68:
 307              		.section	.text.AD7793_IO_Register,"ax",%progbits
 308              		.align	1
ARM GAS  C:\Users\Andre\AppData\Local\Temp\cc3K62V3.s 			page 7


 309              		.global	AD7793_IO_Register
 310              		.syntax unified
 311              		.thumb
 312              		.thumb_func
 314              	AD7793_IO_Register:
 315              	.LVL21:
 316              	.LFB69:
  42:Drivers/AD7793/AD7793.c **** 
  43:Drivers/AD7793/AD7793.c **** void AD7793_IO_Register(unsigned char direction, unsigned char current)
  44:Drivers/AD7793/AD7793.c **** {
 317              		.loc 1 44 1 is_stmt 1 view -0
 318              		.cfi_startproc
 319              		@ args = 0, pretend = 0, frame = 8
 320              		@ frame_needed = 0, uses_anonymous_args = 0
 321              		.loc 1 44 1 is_stmt 0 view .LVU44
 322 0000 10B5     		push	{r4, lr}
 323              	.LCFI12:
 324              		.cfi_def_cfa_offset 8
 325              		.cfi_offset 4, -8
 326              		.cfi_offset 14, -4
 327 0002 82B0     		sub	sp, sp, #8
 328              	.LCFI13:
 329              		.cfi_def_cfa_offset 16
  45:Drivers/AD7793/AD7793.c ****     unsigned char dataToSend[2] = {AD7793_REG_IO, current};
 330              		.loc 1 45 5 is_stmt 1 view .LVU45
 331              		.loc 1 45 19 is_stmt 0 view .LVU46
 332 0004 2823     		movs	r3, #40
 333 0006 8DF80430 		strb	r3, [sp, #4]
 334 000a 8DF80510 		strb	r1, [sp, #5]
  46:Drivers/AD7793/AD7793.c ****                   dataToSend[1] = (direction << 2) + current;          
 335              		.loc 1 46 19 is_stmt 1 view .LVU47
 336              		.loc 1 46 46 is_stmt 0 view .LVU48
 337 000e 8000     		lsls	r0, r0, #2
 338              	.LVL22:
 339              		.loc 1 46 46 view .LVU49
 340 0010 C0B2     		uxtb	r0, r0
 341              		.loc 1 46 52 view .LVU50
 342 0012 0844     		add	r0, r0, r1
 343              		.loc 1 46 33 view .LVU51
 344 0014 8DF80500 		strb	r0, [sp, #5]
  47:Drivers/AD7793/AD7793.c ****     CS_Pin_OFF;   
 345              		.loc 1 47 5 is_stmt 1 view .LVU52
 346 0018 0A4C     		ldr	r4, .L19
 347 001a 0022     		movs	r2, #0
 348 001c 4FF48051 		mov	r1, #4096
 349              	.LVL23:
 350              		.loc 1 47 5 is_stmt 0 view .LVU53
 351 0020 2046     		mov	r0, r4
 352 0022 FFF7FEFF 		bl	HAL_GPIO_WritePin
 353              	.LVL24:
  48:Drivers/AD7793/AD7793.c **** 	    HAL_SPI_Transmit(&hspi2, dataToSend, sizeof(dataToSend), 1);
 354              		.loc 1 48 6 is_stmt 1 view .LVU54
 355 0026 0123     		movs	r3, #1
 356 0028 0222     		movs	r2, #2
 357 002a 01A9     		add	r1, sp, #4
 358 002c 0648     		ldr	r0, .L19+4
 359 002e FFF7FEFF 		bl	HAL_SPI_Transmit
ARM GAS  C:\Users\Andre\AppData\Local\Temp\cc3K62V3.s 			page 8


 360              	.LVL25:
  49:Drivers/AD7793/AD7793.c ****     CS_Pin_ON;
 361              		.loc 1 49 5 view .LVU55
 362 0032 0122     		movs	r2, #1
 363 0034 4FF48051 		mov	r1, #4096
 364 0038 2046     		mov	r0, r4
 365 003a FFF7FEFF 		bl	HAL_GPIO_WritePin
 366              	.LVL26:
  50:Drivers/AD7793/AD7793.c **** }
 367              		.loc 1 50 1 is_stmt 0 view .LVU56
 368 003e 02B0     		add	sp, sp, #8
 369              	.LCFI14:
 370              		.cfi_def_cfa_offset 8
 371              		@ sp needed
 372 0040 10BD     		pop	{r4, pc}
 373              	.L20:
 374 0042 00BF     		.align	2
 375              	.L19:
 376 0044 000C0140 		.word	1073810432
 377 0048 00000000 		.word	hspi2
 378              		.cfi_endproc
 379              	.LFE69:
 381              		.section	.text.AD7793_SingleConversion,"ax",%progbits
 382              		.align	1
 383              		.global	AD7793_SingleConversion
 384              		.syntax unified
 385              		.thumb
 386              		.thumb_func
 388              	AD7793_SingleConversion:
 389              	.LFB70:
  51:Drivers/AD7793/AD7793.c **** 
  52:Drivers/AD7793/AD7793.c **** unsigned long AD7793_SingleConversion(void)
  53:Drivers/AD7793/AD7793.c **** {
 390              		.loc 1 53 1 is_stmt 1 view -0
 391              		.cfi_startproc
 392              		@ args = 0, pretend = 0, frame = 8
 393              		@ frame_needed = 0, uses_anonymous_args = 0
 394 0000 30B5     		push	{r4, r5, lr}
 395              	.LCFI15:
 396              		.cfi_def_cfa_offset 12
 397              		.cfi_offset 4, -12
 398              		.cfi_offset 5, -8
 399              		.cfi_offset 14, -4
 400 0002 85B0     		sub	sp, sp, #20
 401              	.LCFI16:
 402              		.cfi_def_cfa_offset 32
  54:Drivers/AD7793/AD7793.c ****     uint8_t conf[4] = {AD7793_REG_DATA};
 403              		.loc 1 54 5 view .LVU58
 404              		.loc 1 54 13 is_stmt 0 view .LVU59
 405 0004 5823     		movs	r3, #88
 406 0006 0393     		str	r3, [sp, #12]
  55:Drivers/AD7793/AD7793.c ****     uint8_t out[4] = {0x00, 0x00, 0x00, 0x00};
 407              		.loc 1 55 5 is_stmt 1 view .LVU60
 408              		.loc 1 55 13 is_stmt 0 view .LVU61
 409 0008 0022     		movs	r2, #0
 410 000a 0292     		str	r2, [sp, #8]
  56:Drivers/AD7793/AD7793.c ****     
ARM GAS  C:\Users\Andre\AppData\Local\Temp\cc3K62V3.s 			page 9


  57:Drivers/AD7793/AD7793.c ****     CS_Pin_OFF;
 411              		.loc 1 57 5 is_stmt 1 view .LVU62
 412 000c 0F4C     		ldr	r4, .L23
 413 000e 4FF48051 		mov	r1, #4096
 414 0012 2046     		mov	r0, r4
 415 0014 FFF7FEFF 		bl	HAL_GPIO_WritePin
 416              	.LVL27:
  58:Drivers/AD7793/AD7793.c ****         HAL_SPI_TransmitReceive(&hspi2, conf, out, sizeof(out) , 1);
 417              		.loc 1 58 9 view .LVU63
 418 0018 0125     		movs	r5, #1
 419 001a 0095     		str	r5, [sp]
 420 001c 0423     		movs	r3, #4
 421 001e 02AA     		add	r2, sp, #8
 422 0020 03A9     		add	r1, sp, #12
 423 0022 0B48     		ldr	r0, .L23+4
 424 0024 FFF7FEFF 		bl	HAL_SPI_TransmitReceive
 425              	.LVL28:
  59:Drivers/AD7793/AD7793.c ****     CS_Pin_ON;
 426              		.loc 1 59 5 view .LVU64
 427 0028 2A46     		mov	r2, r5
 428 002a 4FF48051 		mov	r1, #4096
 429 002e 2046     		mov	r0, r4
 430 0030 FFF7FEFF 		bl	HAL_GPIO_WritePin
 431              	.LVL29:
  60:Drivers/AD7793/AD7793.c **** 
  61:Drivers/AD7793/AD7793.c ****     uint32_t data_out = (((int32_t)out[0])<<16) | (((int32_t)out[1])<<8) | (((int32_t)out[2]));
 432              		.loc 1 61 5 view .LVU65
 433              		.loc 1 61 39 is_stmt 0 view .LVU66
 434 0034 9DF80800 		ldrb	r0, [sp, #8]	@ zero_extendqisi2
 435              		.loc 1 61 65 view .LVU67
 436 0038 9DF80930 		ldrb	r3, [sp, #9]	@ zero_extendqisi2
 437              		.loc 1 61 69 view .LVU68
 438 003c 1B02     		lsls	r3, r3, #8
 439              		.loc 1 61 49 view .LVU69
 440 003e 43EA0043 		orr	r3, r3, r0, lsl #16
 441              		.loc 1 61 90 view .LVU70
 442 0042 9DF80A00 		ldrb	r0, [sp, #10]	@ zero_extendqisi2
 443              	.LVL30:
  62:Drivers/AD7793/AD7793.c ****     return(data_out);
 444              		.loc 1 62 5 is_stmt 1 view .LVU71
  63:Drivers/AD7793/AD7793.c **** }
 445              		.loc 1 63 1 is_stmt 0 view .LVU72
 446 0046 1843     		orrs	r0, r0, r3
 447              	.LVL31:
 448              		.loc 1 63 1 view .LVU73
 449 0048 05B0     		add	sp, sp, #20
 450              	.LCFI17:
 451              		.cfi_def_cfa_offset 12
 452              		@ sp needed
 453 004a 30BD     		pop	{r4, r5, pc}
 454              	.L24:
 455              		.align	2
 456              	.L23:
 457 004c 000C0140 		.word	1073810432
 458 0050 00000000 		.word	hspi2
 459              		.cfi_endproc
 460              	.LFE70:
ARM GAS  C:\Users\Andre\AppData\Local\Temp\cc3K62V3.s 			page 10


 462              		.section	.text.AD7793_ContinuousReadAvg,"ax",%progbits
 463              		.align	1
 464              		.global	AD7793_ContinuousReadAvg
 465              		.syntax unified
 466              		.thumb
 467              		.thumb_func
 469              	AD7793_ContinuousReadAvg:
 470              	.LVL32:
 471              	.LFB71:
  64:Drivers/AD7793/AD7793.c **** 
  65:Drivers/AD7793/AD7793.c **** unsigned long AD7793_ContinuousReadAvg(unsigned char sampleNumber)
  66:Drivers/AD7793/AD7793.c **** {
 472              		.loc 1 66 1 is_stmt 1 view -0
 473              		.cfi_startproc
 474              		@ args = 0, pretend = 0, frame = 8
 475              		@ frame_needed = 0, uses_anonymous_args = 0
 476              		.loc 1 66 1 is_stmt 0 view .LVU75
 477 0000 70B5     		push	{r4, r5, r6, lr}
 478              	.LCFI18:
 479              		.cfi_def_cfa_offset 16
 480              		.cfi_offset 4, -16
 481              		.cfi_offset 5, -12
 482              		.cfi_offset 6, -8
 483              		.cfi_offset 14, -4
 484 0002 84B0     		sub	sp, sp, #16
 485              	.LCFI19:
 486              		.cfi_def_cfa_offset 32
 487 0004 0646     		mov	r6, r0
  67:Drivers/AD7793/AD7793.c ****     
  68:Drivers/AD7793/AD7793.c ****     uint8_t conf[4] = {AD7793_REG_DATA};
 488              		.loc 1 68 5 is_stmt 1 view .LVU76
 489              		.loc 1 68 13 is_stmt 0 view .LVU77
 490 0006 5823     		movs	r3, #88
 491 0008 0393     		str	r3, [sp, #12]
  69:Drivers/AD7793/AD7793.c ****     uint8_t out[4] = {0x00, 0x00, 0x00, 0x00};
 492              		.loc 1 69 5 is_stmt 1 view .LVU78
 493              		.loc 1 69 13 is_stmt 0 view .LVU79
 494 000a 0025     		movs	r5, #0
 495 000c 0295     		str	r5, [sp, #8]
  70:Drivers/AD7793/AD7793.c ****     unsigned long   samplesAverage = 0x0;
 496              		.loc 1 70 5 is_stmt 1 view .LVU80
 497              	.LVL33:
  71:Drivers/AD7793/AD7793.c ****     unsigned char count = 0x0;
 498              		.loc 1 71 5 view .LVU81
  72:Drivers/AD7793/AD7793.c ****     
  73:Drivers/AD7793/AD7793.c ****     CS_Pin_OFF;
 499              		.loc 1 73 5 view .LVU82
 500 000e 2A46     		mov	r2, r5
 501 0010 4FF48051 		mov	r1, #4096
 502 0014 1248     		ldr	r0, .L29
 503              	.LVL34:
 504              		.loc 1 73 5 is_stmt 0 view .LVU83
 505 0016 FFF7FEFF 		bl	HAL_GPIO_WritePin
 506              	.LVL35:
  74:Drivers/AD7793/AD7793.c ****     for(count = 0;count < sampleNumber;count ++)
 507              		.loc 1 74 5 is_stmt 1 view .LVU84
 508              		.loc 1 74 15 is_stmt 0 view .LVU85
ARM GAS  C:\Users\Andre\AppData\Local\Temp\cc3K62V3.s 			page 11


 509 001a 2C46     		mov	r4, r5
 510              		.loc 1 74 5 view .LVU86
 511 001c 14E0     		b	.L26
 512              	.LVL36:
 513              	.L27:
 514              	.LBB2:
  75:Drivers/AD7793/AD7793.c ****     {
  76:Drivers/AD7793/AD7793.c ****         HAL_SPI_TransmitReceive(&hspi2, conf, out, sizeof(out) , 1);
 515              		.loc 1 76 9 is_stmt 1 discriminator 3 view .LVU87
 516 001e 0123     		movs	r3, #1
 517 0020 0093     		str	r3, [sp]
 518 0022 0423     		movs	r3, #4
 519 0024 02AA     		add	r2, sp, #8
 520 0026 03A9     		add	r1, sp, #12
 521 0028 0E48     		ldr	r0, .L29+4
 522 002a FFF7FEFF 		bl	HAL_SPI_TransmitReceive
 523              	.LVL37:
  77:Drivers/AD7793/AD7793.c ****         uint32_t data_out = (((int32_t)out[0])<<16) | (((int32_t)out[1])<<8) | (((int32_t)out[2]));
 524              		.loc 1 77 9 discriminator 3 view .LVU88
 525              		.loc 1 77 43 is_stmt 0 discriminator 3 view .LVU89
 526 002e 9DF80820 		ldrb	r2, [sp, #8]	@ zero_extendqisi2
 527              		.loc 1 77 69 discriminator 3 view .LVU90
 528 0032 9DF80930 		ldrb	r3, [sp, #9]	@ zero_extendqisi2
 529              		.loc 1 77 73 discriminator 3 view .LVU91
 530 0036 1B02     		lsls	r3, r3, #8
 531              		.loc 1 77 53 discriminator 3 view .LVU92
 532 0038 43EA0243 		orr	r3, r3, r2, lsl #16
 533              		.loc 1 77 94 discriminator 3 view .LVU93
 534 003c 9DF80A20 		ldrb	r2, [sp, #10]	@ zero_extendqisi2
 535              		.loc 1 77 78 discriminator 3 view .LVU94
 536 0040 1343     		orrs	r3, r3, r2
 537              	.LVL38:
  78:Drivers/AD7793/AD7793.c ****         samplesAverage += data_out;
 538              		.loc 1 78 9 is_stmt 1 discriminator 3 view .LVU95
 539              		.loc 1 78 24 is_stmt 0 discriminator 3 view .LVU96
 540 0042 1D44     		add	r5, r5, r3
 541              	.LVL39:
 542              		.loc 1 78 24 discriminator 3 view .LVU97
 543              	.LBE2:
  74:Drivers/AD7793/AD7793.c ****     {
 544              		.loc 1 74 40 is_stmt 1 discriminator 3 view .LVU98
  74:Drivers/AD7793/AD7793.c ****     {
 545              		.loc 1 74 46 is_stmt 0 discriminator 3 view .LVU99
 546 0044 0134     		adds	r4, r4, #1
 547              	.LVL40:
  74:Drivers/AD7793/AD7793.c ****     {
 548              		.loc 1 74 46 discriminator 3 view .LVU100
 549 0046 E4B2     		uxtb	r4, r4
 550              	.LVL41:
 551              	.L26:
  74:Drivers/AD7793/AD7793.c ****     {
 552              		.loc 1 74 19 is_stmt 1 discriminator 1 view .LVU101
  74:Drivers/AD7793/AD7793.c ****     {
 553              		.loc 1 74 5 is_stmt 0 discriminator 1 view .LVU102
 554 0048 B442     		cmp	r4, r6
 555 004a E8D3     		bcc	.L27
  79:Drivers/AD7793/AD7793.c ****     }
ARM GAS  C:\Users\Andre\AppData\Local\Temp\cc3K62V3.s 			page 12


  80:Drivers/AD7793/AD7793.c ****     CS_Pin_ON;
 556              		.loc 1 80 5 is_stmt 1 view .LVU103
 557 004c 0122     		movs	r2, #1
 558 004e 4FF48051 		mov	r1, #4096
 559 0052 0348     		ldr	r0, .L29
 560 0054 FFF7FEFF 		bl	HAL_GPIO_WritePin
 561              	.LVL42:
  81:Drivers/AD7793/AD7793.c ****     samplesAverage = samplesAverage / sampleNumber;
 562              		.loc 1 81 5 view .LVU104
  82:Drivers/AD7793/AD7793.c ****     return(samplesAverage);
 563              		.loc 1 82 5 view .LVU105
  83:Drivers/AD7793/AD7793.c **** }
 564              		.loc 1 83 1 is_stmt 0 view .LVU106
 565 0058 B5FBF6F0 		udiv	r0, r5, r6
 566              	.LVL43:
 567              		.loc 1 83 1 view .LVU107
 568 005c 04B0     		add	sp, sp, #16
 569              	.LCFI20:
 570              		.cfi_def_cfa_offset 16
 571              		@ sp needed
 572 005e 70BD     		pop	{r4, r5, r6, pc}
 573              	.LVL44:
 574              	.L30:
 575              		.loc 1 83 1 view .LVU108
 576              		.align	2
 577              	.L29:
 578 0060 000C0140 		.word	1073810432
 579 0064 00000000 		.word	hspi2
 580              		.cfi_endproc
 581              	.LFE71:
 583              		.section	.rodata
 584              		.align	2
 585              		.set	.LANCHOR0,. + 0
 586              	.LC0:
 587 0000 500000   		.ascii	"P\000\000"
 588 0003 00       		.space	1
 589              	.LC2:
 590 0004 010000   		.ascii	"\001\000\000"
 591              		.text
 592              	.Letext0:
 593              		.file 2 "c:\\vscodeide\\software\\armembeddedgcc\\arm-none-eabi\\include\\machine\\_default_types.
 594              		.file 3 "c:\\vscodeide\\software\\armembeddedgcc\\arm-none-eabi\\include\\sys\\_stdint.h"
 595              		.file 4 "Drivers/CMSIS/Device/ST/STM32F1xx/Include/stm32f103xb.h"
 596              		.file 5 "Drivers/STM32F1xx_HAL_Driver/Inc/stm32f1xx_hal_def.h"
 597              		.file 6 "Drivers/STM32F1xx_HAL_Driver/Inc/stm32f1xx_hal_gpio.h"
 598              		.file 7 "Drivers/STM32F1xx_HAL_Driver/Inc/stm32f1xx_hal_dma.h"
 599              		.file 8 "Drivers/STM32F1xx_HAL_Driver/Inc/stm32f1xx_hal_spi.h"
 600              		.file 9 "Core/Inc/spi.h"
ARM GAS  C:\Users\Andre\AppData\Local\Temp\cc3K62V3.s 			page 13


DEFINED SYMBOLS
                            *ABS*:00000000 AD7793.c
C:\Users\Andre\AppData\Local\Temp\cc3K62V3.s:18     .text.AD7793_Init:00000000 $t
C:\Users\Andre\AppData\Local\Temp\cc3K62V3.s:24     .text.AD7793_Init:00000000 AD7793_Init
C:\Users\Andre\AppData\Local\Temp\cc3K62V3.s:75     .text.AD7793_Init:0000003c $d
C:\Users\Andre\AppData\Local\Temp\cc3K62V3.s:82     .rodata.AD7793_Reset.str1.4:00000000 $d
C:\Users\Andre\AppData\Local\Temp\cc3K62V3.s:86     .text.AD7793_Reset:00000000 $t
C:\Users\Andre\AppData\Local\Temp\cc3K62V3.s:92     .text.AD7793_Reset:00000000 AD7793_Reset
C:\Users\Andre\AppData\Local\Temp\cc3K62V3.s:141    .text.AD7793_Reset:0000003c $d
C:\Users\Andre\AppData\Local\Temp\cc3K62V3.s:148    .text.AD7793_Mode_Register:00000000 $t
C:\Users\Andre\AppData\Local\Temp\cc3K62V3.s:154    .text.AD7793_Mode_Register:00000000 AD7793_Mode_Register
C:\Users\Andre\AppData\Local\Temp\cc3K62V3.s:224    .text.AD7793_Mode_Register:0000004c $d
C:\Users\Andre\AppData\Local\Temp\cc3K62V3.s:231    .rodata.AD7793_Configuration_Register.str1.4:00000000 $d
C:\Users\Andre\AppData\Local\Temp\cc3K62V3.s:235    .text.AD7793_Configuration_Register:00000000 $t
C:\Users\Andre\AppData\Local\Temp\cc3K62V3.s:241    .text.AD7793_Configuration_Register:00000000 AD7793_Configuration_Register
C:\Users\Andre\AppData\Local\Temp\cc3K62V3.s:301    .text.AD7793_Configuration_Register:0000003c $d
C:\Users\Andre\AppData\Local\Temp\cc3K62V3.s:308    .text.AD7793_IO_Register:00000000 $t
C:\Users\Andre\AppData\Local\Temp\cc3K62V3.s:314    .text.AD7793_IO_Register:00000000 AD7793_IO_Register
C:\Users\Andre\AppData\Local\Temp\cc3K62V3.s:376    .text.AD7793_IO_Register:00000044 $d
C:\Users\Andre\AppData\Local\Temp\cc3K62V3.s:382    .text.AD7793_SingleConversion:00000000 $t
C:\Users\Andre\AppData\Local\Temp\cc3K62V3.s:388    .text.AD7793_SingleConversion:00000000 AD7793_SingleConversion
C:\Users\Andre\AppData\Local\Temp\cc3K62V3.s:457    .text.AD7793_SingleConversion:0000004c $d
C:\Users\Andre\AppData\Local\Temp\cc3K62V3.s:463    .text.AD7793_ContinuousReadAvg:00000000 $t
C:\Users\Andre\AppData\Local\Temp\cc3K62V3.s:469    .text.AD7793_ContinuousReadAvg:00000000 AD7793_ContinuousReadAvg
C:\Users\Andre\AppData\Local\Temp\cc3K62V3.s:578    .text.AD7793_ContinuousReadAvg:00000060 $d
C:\Users\Andre\AppData\Local\Temp\cc3K62V3.s:584    .rodata:00000000 $d

UNDEFINED SYMBOLS
HAL_GPIO_WritePin
HAL_SPI_Transmit
hspi2
HAL_SPI_TransmitReceive
