ARM GAS  C:\Users\az\AppData\Local\Temp\cc611p4y.s 			page 1


   1              		.cpu cortex-m3
   2              		.arch armv7-m
   3              		.fpu softvfp
   4              		.eabi_attribute 20, 1
   5              		.eabi_attribute 21, 1
   6              		.eabi_attribute 23, 3
   7              		.eabi_attribute 24, 1
   8              		.eabi_attribute 25, 1
   9              		.eabi_attribute 26, 1
  10              		.eabi_attribute 30, 1
  11              		.eabi_attribute 34, 1
  12              		.eabi_attribute 18, 4
  13              		.file	"AD7793.c"
  14              		.text
  15              	.Ltext0:
  16              		.cfi_sections	.debug_frame
  17              		.section	.text.AD7793_Init,"ax",%progbits
  18              		.align	1
  19              		.global	AD7793_Init
  20              		.syntax unified
  21              		.thumb
  22              		.thumb_func
  24              	AD7793_Init:
  25              	.LFB65:
  26              		.file 1 "Drivers/AD7793/AD7793.c"
   1:Drivers/AD7793/AD7793.c **** #include "AD7793.h"
   2:Drivers/AD7793/AD7793.c **** #include "spi.h"
   3:Drivers/AD7793/AD7793.c **** #include "gpio.h"
   4:Drivers/AD7793/AD7793.c **** 
   5:Drivers/AD7793/AD7793.c **** 
   6:Drivers/AD7793/AD7793.c **** 
   7:Drivers/AD7793/AD7793.c **** void AD7793_Init(void)
   8:Drivers/AD7793/AD7793.c **** {
  27              		.loc 1 8 1 view -0
  28              		.cfi_startproc
  29              		@ args = 0, pretend = 0, frame = 8
  30              		@ frame_needed = 0, uses_anonymous_args = 0
  31 0000 10B5     		push	{r4, lr}
  32              	.LCFI0:
  33              		.cfi_def_cfa_offset 8
  34              		.cfi_offset 4, -8
  35              		.cfi_offset 14, -4
  36 0002 82B0     		sub	sp, sp, #8
  37              	.LCFI1:
  38              		.cfi_def_cfa_offset 16
   9:Drivers/AD7793/AD7793.c **** 	unsigned char dataToSend[3] = {0x50, 0x00, 0x00};
  39              		.loc 1 9 2 view .LVU1
  40              		.loc 1 9 16 is_stmt 0 view .LVU2
  41 0004 0D4B     		ldr	r3, .L3
  42 0006 1B68     		ldr	r3, [r3]
  43 0008 ADF80430 		strh	r3, [sp, #4]	@ movhi
  44 000c 1B0C     		lsrs	r3, r3, #16
  45 000e 8DF80630 		strb	r3, [sp, #6]
  10:Drivers/AD7793/AD7793.c **** 
  11:Drivers/AD7793/AD7793.c ****     CS_Pin_OFF; 
  46              		.loc 1 11 5 is_stmt 1 view .LVU3
  47 0012 0B4C     		ldr	r4, .L3+4
ARM GAS  C:\Users\az\AppData\Local\Temp\cc611p4y.s 			page 2


  48 0014 0022     		movs	r2, #0
  49 0016 4FF48051 		mov	r1, #4096
  50 001a 2046     		mov	r0, r4
  51 001c FFF7FEFF 		bl	HAL_GPIO_WritePin
  52              	.LVL0:
  12:Drivers/AD7793/AD7793.c **** 	    HAL_SPI_Transmit(&hspi2, dataToSend, sizeof(dataToSend), 1);
  53              		.loc 1 12 6 view .LVU4
  54 0020 0123     		movs	r3, #1
  55 0022 0322     		movs	r2, #3
  56 0024 01A9     		add	r1, sp, #4
  57 0026 0748     		ldr	r0, .L3+8
  58 0028 FFF7FEFF 		bl	HAL_SPI_Transmit
  59              	.LVL1:
  13:Drivers/AD7793/AD7793.c ****     CS_Pin_ON;
  60              		.loc 1 13 5 view .LVU5
  61 002c 0122     		movs	r2, #1
  62 002e 4FF48051 		mov	r1, #4096
  63 0032 2046     		mov	r0, r4
  64 0034 FFF7FEFF 		bl	HAL_GPIO_WritePin
  65              	.LVL2:
  14:Drivers/AD7793/AD7793.c **** }
  66              		.loc 1 14 1 is_stmt 0 view .LVU6
  67 0038 02B0     		add	sp, sp, #8
  68              	.LCFI2:
  69              		.cfi_def_cfa_offset 8
  70              		@ sp needed
  71 003a 10BD     		pop	{r4, pc}
  72              	.L4:
  73              		.align	2
  74              	.L3:
  75 003c 00000000 		.word	.LANCHOR0
  76 0040 000C0140 		.word	1073810432
  77 0044 00000000 		.word	hspi2
  78              		.cfi_endproc
  79              	.LFE65:
  81              		.section	.text.AD7793_Reset,"ax",%progbits
  82              		.align	1
  83              		.global	AD7793_Reset
  84              		.syntax unified
  85              		.thumb
  86              		.thumb_func
  88              	AD7793_Reset:
  89              	.LFB66:
  15:Drivers/AD7793/AD7793.c **** 
  16:Drivers/AD7793/AD7793.c **** void AD7793_Reset(void)
  17:Drivers/AD7793/AD7793.c **** {
  90              		.loc 1 17 1 is_stmt 1 view -0
  91              		.cfi_startproc
  92              		@ args = 0, pretend = 0, frame = 8
  93              		@ frame_needed = 0, uses_anonymous_args = 0
  94 0000 10B5     		push	{r4, lr}
  95              	.LCFI3:
  96              		.cfi_def_cfa_offset 8
  97              		.cfi_offset 4, -8
  98              		.cfi_offset 14, -4
  99 0002 82B0     		sub	sp, sp, #8
 100              	.LCFI4:
ARM GAS  C:\Users\az\AppData\Local\Temp\cc611p4y.s 			page 3


 101              		.cfi_def_cfa_offset 16
  18:Drivers/AD7793/AD7793.c **** 	unsigned char dataToSend[4] = {0xff, 0xff, 0xff, 0xff};
 102              		.loc 1 18 2 view .LVU8
 103              		.loc 1 18 16 is_stmt 0 view .LVU9
 104 0004 4FF0FF33 		mov	r3, #-1
 105 0008 0193     		str	r3, [sp, #4]
  19:Drivers/AD7793/AD7793.c **** 
  20:Drivers/AD7793/AD7793.c ****     CS_Pin_OFF; 
 106              		.loc 1 20 5 is_stmt 1 view .LVU10
 107 000a 0B4C     		ldr	r4, .L7
 108 000c 0022     		movs	r2, #0
 109 000e 4FF48051 		mov	r1, #4096
 110 0012 2046     		mov	r0, r4
 111 0014 FFF7FEFF 		bl	HAL_GPIO_WritePin
 112              	.LVL3:
  21:Drivers/AD7793/AD7793.c **** 	    HAL_SPI_Transmit(&hspi2, dataToSend, sizeof(dataToSend), 1);
 113              		.loc 1 21 6 view .LVU11
 114 0018 0123     		movs	r3, #1
 115 001a 0422     		movs	r2, #4
 116 001c 0DEB0201 		add	r1, sp, r2
 117 0020 0648     		ldr	r0, .L7+4
 118 0022 FFF7FEFF 		bl	HAL_SPI_Transmit
 119              	.LVL4:
  22:Drivers/AD7793/AD7793.c ****     CS_Pin_ON;
 120              		.loc 1 22 5 view .LVU12
 121 0026 0122     		movs	r2, #1
 122 0028 4FF48051 		mov	r1, #4096
 123 002c 2046     		mov	r0, r4
 124 002e FFF7FEFF 		bl	HAL_GPIO_WritePin
 125              	.LVL5:
  23:Drivers/AD7793/AD7793.c **** }
 126              		.loc 1 23 1 is_stmt 0 view .LVU13
 127 0032 02B0     		add	sp, sp, #8
 128              	.LCFI5:
 129              		.cfi_def_cfa_offset 8
 130              		@ sp needed
 131 0034 10BD     		pop	{r4, pc}
 132              	.L8:
 133 0036 00BF     		.align	2
 134              	.L7:
 135 0038 000C0140 		.word	1073810432
 136 003c 00000000 		.word	hspi2
 137              		.cfi_endproc
 138              	.LFE66:
 140              		.section	.text.AD7793_Mode_Register,"ax",%progbits
 141              		.align	1
 142              		.global	AD7793_Mode_Register
 143              		.syntax unified
 144              		.thumb
 145              		.thumb_func
 147              	AD7793_Mode_Register:
 148              	.LVL6:
 149              	.LFB67:
  24:Drivers/AD7793/AD7793.c **** 
  25:Drivers/AD7793/AD7793.c **** void AD7793_Mode_Register(unsigned char mode, unsigned long clksrc, unsigned long rate)
  26:Drivers/AD7793/AD7793.c **** {
 150              		.loc 1 26 1 is_stmt 1 view -0
ARM GAS  C:\Users\az\AppData\Local\Temp\cc611p4y.s 			page 4


 151              		.cfi_startproc
 152              		@ args = 0, pretend = 0, frame = 8
 153              		@ frame_needed = 0, uses_anonymous_args = 0
 154              		.loc 1 26 1 is_stmt 0 view .LVU15
 155 0000 10B5     		push	{r4, lr}
 156              	.LCFI6:
 157              		.cfi_def_cfa_offset 8
 158              		.cfi_offset 4, -8
 159              		.cfi_offset 14, -4
 160 0002 82B0     		sub	sp, sp, #8
 161              	.LCFI7:
 162              		.cfi_def_cfa_offset 16
  27:Drivers/AD7793/AD7793.c ****     unsigned char dataToSend[3] = {0x01, 0x00, 0x00};
 163              		.loc 1 27 5 is_stmt 1 view .LVU16
 164              		.loc 1 27 19 is_stmt 0 view .LVU17
 165 0004 114B     		ldr	r3, .L11
 166 0006 5B68     		ldr	r3, [r3, #4]
 167 0008 ADF80430 		strh	r3, [sp, #4]	@ movhi
 168 000c 1B0C     		lsrs	r3, r3, #16
 169 000e 8DF80630 		strb	r3, [sp, #6]
  28:Drivers/AD7793/AD7793.c ****                   dataToSend[1] = mode << 5;
 170              		.loc 1 28 19 is_stmt 1 view .LVU18
 171              		.loc 1 28 40 is_stmt 0 view .LVU19
 172 0012 4001     		lsls	r0, r0, #5
 173              	.LVL7:
 174              		.loc 1 28 33 view .LVU20
 175 0014 8DF80500 		strb	r0, [sp, #5]
  29:Drivers/AD7793/AD7793.c ****                   dataToSend[2] = (clksrc << 6) + rate;
 176              		.loc 1 29 19 is_stmt 1 view .LVU21
 177              		.loc 1 29 43 is_stmt 0 view .LVU22
 178 0018 8901     		lsls	r1, r1, #6
 179              	.LVL8:
 180              		.loc 1 29 43 view .LVU23
 181 001a C9B2     		uxtb	r1, r1
 182              		.loc 1 29 49 view .LVU24
 183 001c 1144     		add	r1, r1, r2
 184              		.loc 1 29 33 view .LVU25
 185 001e 8DF80610 		strb	r1, [sp, #6]
  30:Drivers/AD7793/AD7793.c ****     CS_Pin_OFF; 
 186              		.loc 1 30 5 is_stmt 1 view .LVU26
 187 0022 0B4C     		ldr	r4, .L11+4
 188 0024 0022     		movs	r2, #0
 189              	.LVL9:
 190              		.loc 1 30 5 is_stmt 0 view .LVU27
 191 0026 4FF48051 		mov	r1, #4096
 192 002a 2046     		mov	r0, r4
 193 002c FFF7FEFF 		bl	HAL_GPIO_WritePin
 194              	.LVL10:
  31:Drivers/AD7793/AD7793.c **** 	    HAL_SPI_Transmit(&hspi2, dataToSend, sizeof(dataToSend), 1);
 195              		.loc 1 31 6 is_stmt 1 view .LVU28
 196 0030 0123     		movs	r3, #1
 197 0032 0322     		movs	r2, #3
 198 0034 01A9     		add	r1, sp, #4
 199 0036 0748     		ldr	r0, .L11+8
 200 0038 FFF7FEFF 		bl	HAL_SPI_Transmit
 201              	.LVL11:
  32:Drivers/AD7793/AD7793.c ****     CS_Pin_ON;
ARM GAS  C:\Users\az\AppData\Local\Temp\cc611p4y.s 			page 5


 202              		.loc 1 32 5 view .LVU29
 203 003c 0122     		movs	r2, #1
 204 003e 4FF48051 		mov	r1, #4096
 205 0042 2046     		mov	r0, r4
 206 0044 FFF7FEFF 		bl	HAL_GPIO_WritePin
 207              	.LVL12:
  33:Drivers/AD7793/AD7793.c **** }
 208              		.loc 1 33 1 is_stmt 0 view .LVU30
 209 0048 02B0     		add	sp, sp, #8
 210              	.LCFI8:
 211              		.cfi_def_cfa_offset 8
 212              		@ sp needed
 213 004a 10BD     		pop	{r4, pc}
 214              	.L12:
 215              		.align	2
 216              	.L11:
 217 004c 00000000 		.word	.LANCHOR0
 218 0050 000C0140 		.word	1073810432
 219 0054 00000000 		.word	hspi2
 220              		.cfi_endproc
 221              	.LFE67:
 223              		.section	.rodata.AD7793_Configuration_Register.str1.4,"aMS",%progbits,1
 224              		.align	2
 225              	.LC2:
 226 0000 100700   		.ascii	"\020\007\000"
 227              		.section	.text.AD7793_Configuration_Register,"ax",%progbits
 228              		.align	1
 229              		.global	AD7793_Configuration_Register
 230              		.syntax unified
 231              		.thumb
 232              		.thumb_func
 234              	AD7793_Configuration_Register:
 235              	.LVL13:
 236              	.LFB68:
  34:Drivers/AD7793/AD7793.c **** 
  35:Drivers/AD7793/AD7793.c **** void AD7793_Configuration_Register(unsigned char vbias, unsigned char gain, unsigned char refsel, u
  36:Drivers/AD7793/AD7793.c **** {
 237              		.loc 1 36 1 is_stmt 1 view -0
 238              		.cfi_startproc
 239              		@ args = 0, pretend = 0, frame = 8
 240              		@ frame_needed = 0, uses_anonymous_args = 0
 241              		.loc 1 36 1 is_stmt 0 view .LVU32
 242 0000 10B5     		push	{r4, lr}
 243              	.LCFI9:
 244              		.cfi_def_cfa_offset 8
 245              		.cfi_offset 4, -8
 246              		.cfi_offset 14, -4
 247 0002 82B0     		sub	sp, sp, #8
 248              	.LCFI10:
 249              		.cfi_def_cfa_offset 16
  37:Drivers/AD7793/AD7793.c **** 	unsigned char dataToSend[3] = {AD7793_REG_CONF, 0x07, 0x00};
 250              		.loc 1 37 2 is_stmt 1 view .LVU33
 251              		.loc 1 37 16 is_stmt 0 view .LVU34
 252 0004 1149     		ldr	r1, .L15
 253              	.LVL14:
 254              		.loc 1 37 16 view .LVU35
 255 0006 0968     		ldr	r1, [r1]
ARM GAS  C:\Users\az\AppData\Local\Temp\cc611p4y.s 			page 6


 256 0008 ADF80410 		strh	r1, [sp, #4]	@ movhi
 257 000c 090C     		lsrs	r1, r1, #16
 258 000e 8DF80610 		strb	r1, [sp, #6]
  38:Drivers/AD7793/AD7793.c ****                   //dataToSend[1] = (vbias << 6) + gain;
  39:Drivers/AD7793/AD7793.c ****                   dataToSend[2] = 0x10 | ((refsel << 7) + channel);
 259              		.loc 1 39 19 is_stmt 1 view .LVU36
 260              		.loc 1 39 51 is_stmt 0 view .LVU37
 261 0012 D201     		lsls	r2, r2, #7
 262              	.LVL15:
 263              		.loc 1 39 51 view .LVU38
 264 0014 D2B2     		uxtb	r2, r2
 265              		.loc 1 39 57 view .LVU39
 266 0016 1A44     		add	r2, r2, r3
 267 0018 52B2     		sxtb	r2, r2
 268              		.loc 1 39 40 view .LVU40
 269 001a 42F01002 		orr	r2, r2, #16
 270              		.loc 1 39 33 view .LVU41
 271 001e 8DF80620 		strb	r2, [sp, #6]
  40:Drivers/AD7793/AD7793.c ****     CS_Pin_OFF; 
 272              		.loc 1 40 5 is_stmt 1 view .LVU42
 273 0022 0B4C     		ldr	r4, .L15+4
 274 0024 0022     		movs	r2, #0
 275 0026 4FF48051 		mov	r1, #4096
 276 002a 2046     		mov	r0, r4
 277              	.LVL16:
 278              		.loc 1 40 5 is_stmt 0 view .LVU43
 279 002c FFF7FEFF 		bl	HAL_GPIO_WritePin
 280              	.LVL17:
  41:Drivers/AD7793/AD7793.c **** 	    HAL_SPI_Transmit(&hspi2, dataToSend, sizeof(dataToSend), 1);
 281              		.loc 1 41 6 is_stmt 1 view .LVU44
 282 0030 0123     		movs	r3, #1
 283 0032 0322     		movs	r2, #3
 284 0034 01A9     		add	r1, sp, #4
 285 0036 0748     		ldr	r0, .L15+8
 286 0038 FFF7FEFF 		bl	HAL_SPI_Transmit
 287              	.LVL18:
  42:Drivers/AD7793/AD7793.c ****     CS_Pin_ON;
 288              		.loc 1 42 5 view .LVU45
 289 003c 0122     		movs	r2, #1
 290 003e 4FF48051 		mov	r1, #4096
 291 0042 2046     		mov	r0, r4
 292 0044 FFF7FEFF 		bl	HAL_GPIO_WritePin
 293              	.LVL19:
  43:Drivers/AD7793/AD7793.c **** }
 294              		.loc 1 43 1 is_stmt 0 view .LVU46
 295 0048 02B0     		add	sp, sp, #8
 296              	.LCFI11:
 297              		.cfi_def_cfa_offset 8
 298              		@ sp needed
 299 004a 10BD     		pop	{r4, pc}
 300              	.L16:
 301              		.align	2
 302              	.L15:
 303 004c 00000000 		.word	.LC2
 304 0050 000C0140 		.word	1073810432
 305 0054 00000000 		.word	hspi2
 306              		.cfi_endproc
ARM GAS  C:\Users\az\AppData\Local\Temp\cc611p4y.s 			page 7


 307              	.LFE68:
 309              		.section	.text.AD7793_IO_Register,"ax",%progbits
 310              		.align	1
 311              		.global	AD7793_IO_Register
 312              		.syntax unified
 313              		.thumb
 314              		.thumb_func
 316              	AD7793_IO_Register:
 317              	.LVL20:
 318              	.LFB69:
  44:Drivers/AD7793/AD7793.c **** 
  45:Drivers/AD7793/AD7793.c **** void AD7793_IO_Register(unsigned char direction, unsigned char current)
  46:Drivers/AD7793/AD7793.c **** {
 319              		.loc 1 46 1 is_stmt 1 view -0
 320              		.cfi_startproc
 321              		@ args = 0, pretend = 0, frame = 8
 322              		@ frame_needed = 0, uses_anonymous_args = 0
 323              		.loc 1 46 1 is_stmt 0 view .LVU48
 324 0000 10B5     		push	{r4, lr}
 325              	.LCFI12:
 326              		.cfi_def_cfa_offset 8
 327              		.cfi_offset 4, -8
 328              		.cfi_offset 14, -4
 329 0002 82B0     		sub	sp, sp, #8
 330              	.LCFI13:
 331              		.cfi_def_cfa_offset 16
  47:Drivers/AD7793/AD7793.c ****     unsigned char dataToSend[2] = {AD7793_REG_IO, current};
 332              		.loc 1 47 5 is_stmt 1 view .LVU49
 333              		.loc 1 47 19 is_stmt 0 view .LVU50
 334 0004 2823     		movs	r3, #40
 335 0006 8DF80430 		strb	r3, [sp, #4]
 336 000a 8DF80510 		strb	r1, [sp, #5]
  48:Drivers/AD7793/AD7793.c ****                   dataToSend[1] = (direction << 2) + current;          
 337              		.loc 1 48 19 is_stmt 1 view .LVU51
 338              		.loc 1 48 46 is_stmt 0 view .LVU52
 339 000e 8000     		lsls	r0, r0, #2
 340              	.LVL21:
 341              		.loc 1 48 46 view .LVU53
 342 0010 C0B2     		uxtb	r0, r0
 343              		.loc 1 48 52 view .LVU54
 344 0012 0844     		add	r0, r0, r1
 345              		.loc 1 48 33 view .LVU55
 346 0014 8DF80500 		strb	r0, [sp, #5]
  49:Drivers/AD7793/AD7793.c ****     CS_Pin_OFF;   
 347              		.loc 1 49 5 is_stmt 1 view .LVU56
 348 0018 0A4C     		ldr	r4, .L19
 349 001a 0022     		movs	r2, #0
 350 001c 4FF48051 		mov	r1, #4096
 351              	.LVL22:
 352              		.loc 1 49 5 is_stmt 0 view .LVU57
 353 0020 2046     		mov	r0, r4
 354 0022 FFF7FEFF 		bl	HAL_GPIO_WritePin
 355              	.LVL23:
  50:Drivers/AD7793/AD7793.c **** 	    HAL_SPI_Transmit(&hspi2, dataToSend, sizeof(dataToSend), 1);
 356              		.loc 1 50 6 is_stmt 1 view .LVU58
 357 0026 0123     		movs	r3, #1
 358 0028 0222     		movs	r2, #2
ARM GAS  C:\Users\az\AppData\Local\Temp\cc611p4y.s 			page 8


 359 002a 01A9     		add	r1, sp, #4
 360 002c 0648     		ldr	r0, .L19+4
 361 002e FFF7FEFF 		bl	HAL_SPI_Transmit
 362              	.LVL24:
  51:Drivers/AD7793/AD7793.c ****     CS_Pin_ON;
 363              		.loc 1 51 5 view .LVU59
 364 0032 0122     		movs	r2, #1
 365 0034 4FF48051 		mov	r1, #4096
 366 0038 2046     		mov	r0, r4
 367 003a FFF7FEFF 		bl	HAL_GPIO_WritePin
 368              	.LVL25:
  52:Drivers/AD7793/AD7793.c **** }
 369              		.loc 1 52 1 is_stmt 0 view .LVU60
 370 003e 02B0     		add	sp, sp, #8
 371              	.LCFI14:
 372              		.cfi_def_cfa_offset 8
 373              		@ sp needed
 374 0040 10BD     		pop	{r4, pc}
 375              	.L20:
 376 0042 00BF     		.align	2
 377              	.L19:
 378 0044 000C0140 		.word	1073810432
 379 0048 00000000 		.word	hspi2
 380              		.cfi_endproc
 381              	.LFE69:
 383              		.section	.text.AD7793_SingleConversion,"ax",%progbits
 384              		.align	1
 385              		.global	AD7793_SingleConversion
 386              		.syntax unified
 387              		.thumb
 388              		.thumb_func
 390              	AD7793_SingleConversion:
 391              	.LFB70:
  53:Drivers/AD7793/AD7793.c **** 
  54:Drivers/AD7793/AD7793.c **** unsigned long AD7793_SingleConversion(void)
  55:Drivers/AD7793/AD7793.c **** {
 392              		.loc 1 55 1 is_stmt 1 view -0
 393              		.cfi_startproc
 394              		@ args = 0, pretend = 0, frame = 8
 395              		@ frame_needed = 0, uses_anonymous_args = 0
 396 0000 30B5     		push	{r4, r5, lr}
 397              	.LCFI15:
 398              		.cfi_def_cfa_offset 12
 399              		.cfi_offset 4, -12
 400              		.cfi_offset 5, -8
 401              		.cfi_offset 14, -4
 402 0002 85B0     		sub	sp, sp, #20
 403              	.LCFI16:
 404              		.cfi_def_cfa_offset 32
  56:Drivers/AD7793/AD7793.c ****     uint8_t conf[4] = {AD7793_REG_DATA};
 405              		.loc 1 56 5 view .LVU62
 406              		.loc 1 56 13 is_stmt 0 view .LVU63
 407 0004 5823     		movs	r3, #88
 408 0006 0393     		str	r3, [sp, #12]
  57:Drivers/AD7793/AD7793.c ****     uint8_t out[4] = {0x00, 0x00, 0x00, 0x00};
 409              		.loc 1 57 5 is_stmt 1 view .LVU64
 410              		.loc 1 57 13 is_stmt 0 view .LVU65
ARM GAS  C:\Users\az\AppData\Local\Temp\cc611p4y.s 			page 9


 411 0008 0022     		movs	r2, #0
 412 000a 0292     		str	r2, [sp, #8]
  58:Drivers/AD7793/AD7793.c ****     
  59:Drivers/AD7793/AD7793.c ****     CS_Pin_OFF;
 413              		.loc 1 59 5 is_stmt 1 view .LVU66
 414 000c 0F4C     		ldr	r4, .L23
 415 000e 4FF48051 		mov	r1, #4096
 416 0012 2046     		mov	r0, r4
 417 0014 FFF7FEFF 		bl	HAL_GPIO_WritePin
 418              	.LVL26:
  60:Drivers/AD7793/AD7793.c ****         HAL_SPI_TransmitReceive(&hspi2, conf, out, sizeof(out) , 1);
 419              		.loc 1 60 9 view .LVU67
 420 0018 0125     		movs	r5, #1
 421 001a 0095     		str	r5, [sp]
 422 001c 0423     		movs	r3, #4
 423 001e 02AA     		add	r2, sp, #8
 424 0020 03A9     		add	r1, sp, #12
 425 0022 0B48     		ldr	r0, .L23+4
 426 0024 FFF7FEFF 		bl	HAL_SPI_TransmitReceive
 427              	.LVL27:
  61:Drivers/AD7793/AD7793.c ****     CS_Pin_ON;
 428              		.loc 1 61 5 view .LVU68
 429 0028 2A46     		mov	r2, r5
 430 002a 4FF48051 		mov	r1, #4096
 431 002e 2046     		mov	r0, r4
 432 0030 FFF7FEFF 		bl	HAL_GPIO_WritePin
 433              	.LVL28:
  62:Drivers/AD7793/AD7793.c **** 
  63:Drivers/AD7793/AD7793.c ****     uint32_t data_out = (((int32_t)out[0])<<16) | (((int32_t)out[1])<<8) | (((int32_t)out[2]));
 434              		.loc 1 63 5 view .LVU69
 435              		.loc 1 63 39 is_stmt 0 view .LVU70
 436 0034 9DF80800 		ldrb	r0, [sp, #8]	@ zero_extendqisi2
 437              		.loc 1 63 65 view .LVU71
 438 0038 9DF80930 		ldrb	r3, [sp, #9]	@ zero_extendqisi2
 439              		.loc 1 63 69 view .LVU72
 440 003c 1B02     		lsls	r3, r3, #8
 441              		.loc 1 63 49 view .LVU73
 442 003e 43EA0043 		orr	r3, r3, r0, lsl #16
 443              		.loc 1 63 90 view .LVU74
 444 0042 9DF80A00 		ldrb	r0, [sp, #10]	@ zero_extendqisi2
 445              	.LVL29:
  64:Drivers/AD7793/AD7793.c ****     return(data_out);
 446              		.loc 1 64 5 is_stmt 1 view .LVU75
  65:Drivers/AD7793/AD7793.c **** }
 447              		.loc 1 65 1 is_stmt 0 view .LVU76
 448 0046 1843     		orrs	r0, r0, r3
 449              	.LVL30:
 450              		.loc 1 65 1 view .LVU77
 451 0048 05B0     		add	sp, sp, #20
 452              	.LCFI17:
 453              		.cfi_def_cfa_offset 12
 454              		@ sp needed
 455 004a 30BD     		pop	{r4, r5, pc}
 456              	.L24:
 457              		.align	2
 458              	.L23:
 459 004c 000C0140 		.word	1073810432
ARM GAS  C:\Users\az\AppData\Local\Temp\cc611p4y.s 			page 10


 460 0050 00000000 		.word	hspi2
 461              		.cfi_endproc
 462              	.LFE70:
 464              		.section	.text.AD7793_ContinuousReadAvg,"ax",%progbits
 465              		.align	1
 466              		.global	AD7793_ContinuousReadAvg
 467              		.syntax unified
 468              		.thumb
 469              		.thumb_func
 471              	AD7793_ContinuousReadAvg:
 472              	.LVL31:
 473              	.LFB71:
  66:Drivers/AD7793/AD7793.c **** 
  67:Drivers/AD7793/AD7793.c **** unsigned long AD7793_ContinuousReadAvg(unsigned char sampleNumber)
  68:Drivers/AD7793/AD7793.c **** {
 474              		.loc 1 68 1 is_stmt 1 view -0
 475              		.cfi_startproc
 476              		@ args = 0, pretend = 0, frame = 8
 477              		@ frame_needed = 0, uses_anonymous_args = 0
 478              		.loc 1 68 1 is_stmt 0 view .LVU79
 479 0000 70B5     		push	{r4, r5, r6, lr}
 480              	.LCFI18:
 481              		.cfi_def_cfa_offset 16
 482              		.cfi_offset 4, -16
 483              		.cfi_offset 5, -12
 484              		.cfi_offset 6, -8
 485              		.cfi_offset 14, -4
 486 0002 84B0     		sub	sp, sp, #16
 487              	.LCFI19:
 488              		.cfi_def_cfa_offset 32
 489 0004 0646     		mov	r6, r0
  69:Drivers/AD7793/AD7793.c ****     
  70:Drivers/AD7793/AD7793.c ****     uint8_t conf[4] = {AD7793_REG_DATA};
 490              		.loc 1 70 5 is_stmt 1 view .LVU80
 491              		.loc 1 70 13 is_stmt 0 view .LVU81
 492 0006 5823     		movs	r3, #88
 493 0008 0393     		str	r3, [sp, #12]
  71:Drivers/AD7793/AD7793.c ****     uint8_t out[4] = {0x00, 0x00, 0x00, 0x00};
 494              		.loc 1 71 5 is_stmt 1 view .LVU82
 495              		.loc 1 71 13 is_stmt 0 view .LVU83
 496 000a 0025     		movs	r5, #0
 497 000c 0295     		str	r5, [sp, #8]
  72:Drivers/AD7793/AD7793.c ****     unsigned long   samplesAverage = 0x0;
 498              		.loc 1 72 5 is_stmt 1 view .LVU84
 499              	.LVL32:
  73:Drivers/AD7793/AD7793.c ****     unsigned char count = 0x0;
 500              		.loc 1 73 5 view .LVU85
  74:Drivers/AD7793/AD7793.c ****     
  75:Drivers/AD7793/AD7793.c ****     CS_Pin_OFF;
 501              		.loc 1 75 5 view .LVU86
 502 000e 2A46     		mov	r2, r5
 503 0010 4FF48051 		mov	r1, #4096
 504 0014 1248     		ldr	r0, .L29
 505              	.LVL33:
 506              		.loc 1 75 5 is_stmt 0 view .LVU87
 507 0016 FFF7FEFF 		bl	HAL_GPIO_WritePin
 508              	.LVL34:
ARM GAS  C:\Users\az\AppData\Local\Temp\cc611p4y.s 			page 11


  76:Drivers/AD7793/AD7793.c ****     for(count = 0;count < sampleNumber;count ++)
 509              		.loc 1 76 5 is_stmt 1 view .LVU88
 510              		.loc 1 76 15 is_stmt 0 view .LVU89
 511 001a 2C46     		mov	r4, r5
 512              		.loc 1 76 5 view .LVU90
 513 001c 14E0     		b	.L26
 514              	.LVL35:
 515              	.L27:
 516              	.LBB2:
  77:Drivers/AD7793/AD7793.c ****     {
  78:Drivers/AD7793/AD7793.c ****         HAL_SPI_TransmitReceive(&hspi2, conf, out, sizeof(out) , 1);
 517              		.loc 1 78 9 is_stmt 1 discriminator 3 view .LVU91
 518 001e 0123     		movs	r3, #1
 519 0020 0093     		str	r3, [sp]
 520 0022 0423     		movs	r3, #4
 521 0024 02AA     		add	r2, sp, #8
 522 0026 03A9     		add	r1, sp, #12
 523 0028 0E48     		ldr	r0, .L29+4
 524 002a FFF7FEFF 		bl	HAL_SPI_TransmitReceive
 525              	.LVL36:
  79:Drivers/AD7793/AD7793.c ****         uint32_t data_out = (((int32_t)out[0])<<16) | (((int32_t)out[1])<<8) | (((int32_t)out[2]));
 526              		.loc 1 79 9 discriminator 3 view .LVU92
 527              		.loc 1 79 43 is_stmt 0 discriminator 3 view .LVU93
 528 002e 9DF80820 		ldrb	r2, [sp, #8]	@ zero_extendqisi2
 529              		.loc 1 79 69 discriminator 3 view .LVU94
 530 0032 9DF80930 		ldrb	r3, [sp, #9]	@ zero_extendqisi2
 531              		.loc 1 79 73 discriminator 3 view .LVU95
 532 0036 1B02     		lsls	r3, r3, #8
 533              		.loc 1 79 53 discriminator 3 view .LVU96
 534 0038 43EA0243 		orr	r3, r3, r2, lsl #16
 535              		.loc 1 79 94 discriminator 3 view .LVU97
 536 003c 9DF80A20 		ldrb	r2, [sp, #10]	@ zero_extendqisi2
 537              		.loc 1 79 78 discriminator 3 view .LVU98
 538 0040 1343     		orrs	r3, r3, r2
 539              	.LVL37:
  80:Drivers/AD7793/AD7793.c ****         samplesAverage += data_out;
 540              		.loc 1 80 9 is_stmt 1 discriminator 3 view .LVU99
 541              		.loc 1 80 24 is_stmt 0 discriminator 3 view .LVU100
 542 0042 1D44     		add	r5, r5, r3
 543              	.LVL38:
 544              		.loc 1 80 24 discriminator 3 view .LVU101
 545              	.LBE2:
  76:Drivers/AD7793/AD7793.c ****     {
 546              		.loc 1 76 40 is_stmt 1 discriminator 3 view .LVU102
  76:Drivers/AD7793/AD7793.c ****     {
 547              		.loc 1 76 46 is_stmt 0 discriminator 3 view .LVU103
 548 0044 0134     		adds	r4, r4, #1
 549              	.LVL39:
  76:Drivers/AD7793/AD7793.c ****     {
 550              		.loc 1 76 46 discriminator 3 view .LVU104
 551 0046 E4B2     		uxtb	r4, r4
 552              	.LVL40:
 553              	.L26:
  76:Drivers/AD7793/AD7793.c ****     {
 554              		.loc 1 76 19 is_stmt 1 discriminator 1 view .LVU105
  76:Drivers/AD7793/AD7793.c ****     {
 555              		.loc 1 76 5 is_stmt 0 discriminator 1 view .LVU106
ARM GAS  C:\Users\az\AppData\Local\Temp\cc611p4y.s 			page 12


 556 0048 B442     		cmp	r4, r6
 557 004a E8D3     		bcc	.L27
  81:Drivers/AD7793/AD7793.c ****     }
  82:Drivers/AD7793/AD7793.c ****     CS_Pin_ON;
 558              		.loc 1 82 5 is_stmt 1 view .LVU107
 559 004c 0122     		movs	r2, #1
 560 004e 4FF48051 		mov	r1, #4096
 561 0052 0348     		ldr	r0, .L29
 562 0054 FFF7FEFF 		bl	HAL_GPIO_WritePin
 563              	.LVL41:
  83:Drivers/AD7793/AD7793.c ****     samplesAverage = samplesAverage / sampleNumber;
 564              		.loc 1 83 5 view .LVU108
  84:Drivers/AD7793/AD7793.c ****     return(samplesAverage);
 565              		.loc 1 84 5 view .LVU109
  85:Drivers/AD7793/AD7793.c **** }
 566              		.loc 1 85 1 is_stmt 0 view .LVU110
 567 0058 B5FBF6F0 		udiv	r0, r5, r6
 568              	.LVL42:
 569              		.loc 1 85 1 view .LVU111
 570 005c 04B0     		add	sp, sp, #16
 571              	.LCFI20:
 572              		.cfi_def_cfa_offset 16
 573              		@ sp needed
 574 005e 70BD     		pop	{r4, r5, r6, pc}
 575              	.LVL43:
 576              	.L30:
 577              		.loc 1 85 1 view .LVU112
 578              		.align	2
 579              	.L29:
 580 0060 000C0140 		.word	1073810432
 581 0064 00000000 		.word	hspi2
 582              		.cfi_endproc
 583              	.LFE71:
 585              		.section	.rodata
 586              		.align	2
 587              		.set	.LANCHOR0,. + 0
 588              	.LC0:
 589 0000 500000   		.ascii	"P\000\000"
 590 0003 00       		.space	1
 591              	.LC1:
 592 0004 010000   		.ascii	"\001\000\000"
 593              		.text
 594              	.Letext0:
 595              		.file 2 "c:\\vscodeide\\software\\armembeddedgcc\\arm-none-eabi\\include\\machine\\_default_types.
 596              		.file 3 "c:\\vscodeide\\software\\armembeddedgcc\\arm-none-eabi\\include\\sys\\_stdint.h"
 597              		.file 4 "Drivers/CMSIS/Device/ST/STM32F1xx/Include/stm32f103xb.h"
 598              		.file 5 "Drivers/STM32F1xx_HAL_Driver/Inc/stm32f1xx_hal_def.h"
 599              		.file 6 "Drivers/STM32F1xx_HAL_Driver/Inc/stm32f1xx_hal_gpio.h"
 600              		.file 7 "Drivers/STM32F1xx_HAL_Driver/Inc/stm32f1xx_hal_dma.h"
 601              		.file 8 "Drivers/STM32F1xx_HAL_Driver/Inc/stm32f1xx_hal_spi.h"
 602              		.file 9 "Core/Inc/spi.h"
ARM GAS  C:\Users\az\AppData\Local\Temp\cc611p4y.s 			page 13

