ARM GAS  C:\Users\az\AppData\Local\Temp\cc4tBB26.s 			page 1


   1              		.cpu cortex-m3
   2              		.arch armv7-m
   3              		.fpu softvfp
   4              		.eabi_attribute 20, 1
   5              		.eabi_attribute 21, 1
   6              		.eabi_attribute 23, 3
   7              		.eabi_attribute 24, 1
   8              		.eabi_attribute 25, 1
   9              		.eabi_attribute 26, 1
  10              		.eabi_attribute 30, 1
  11              		.eabi_attribute 34, 1
  12              		.eabi_attribute 18, 4
  13              		.file	"stm32f1xx_it.c"
  14              		.text
  15              	.Ltext0:
  16              		.cfi_sections	.debug_frame
  17              		.section	.text.NMI_Handler,"ax",%progbits
  18              		.align	1
  19              		.global	NMI_Handler
  20              		.syntax unified
  21              		.thumb
  22              		.thumb_func
  24              	NMI_Handler:
  25              	.LFB65:
  26              		.file 1 "Core/Src/stm32f1xx_it.c"
   1:Core/Src/stm32f1xx_it.c **** /* USER CODE BEGIN Header */
   2:Core/Src/stm32f1xx_it.c **** /**
   3:Core/Src/stm32f1xx_it.c ****  ******************************************************************************
   4:Core/Src/stm32f1xx_it.c ****  * @file    stm32f1xx_it.c
   5:Core/Src/stm32f1xx_it.c ****  * @brief   Interrupt Service Routines.
   6:Core/Src/stm32f1xx_it.c ****  ******************************************************************************
   7:Core/Src/stm32f1xx_it.c ****  * @attention
   8:Core/Src/stm32f1xx_it.c ****  *
   9:Core/Src/stm32f1xx_it.c ****  * Copyright (c) 2024 STMicroelectronics.
  10:Core/Src/stm32f1xx_it.c ****  * All rights reserved.
  11:Core/Src/stm32f1xx_it.c ****  *
  12:Core/Src/stm32f1xx_it.c ****  * This software is licensed under terms that can be found in the LICENSE file
  13:Core/Src/stm32f1xx_it.c ****  * in the root directory of this software component.
  14:Core/Src/stm32f1xx_it.c ****  * If no LICENSE file comes with this software, it is provided AS-IS.
  15:Core/Src/stm32f1xx_it.c ****  *
  16:Core/Src/stm32f1xx_it.c ****  ******************************************************************************
  17:Core/Src/stm32f1xx_it.c ****  */
  18:Core/Src/stm32f1xx_it.c **** /* USER CODE END Header */
  19:Core/Src/stm32f1xx_it.c **** 
  20:Core/Src/stm32f1xx_it.c **** /* Includes ------------------------------------------------------------------*/
  21:Core/Src/stm32f1xx_it.c **** #include "main.h"
  22:Core/Src/stm32f1xx_it.c **** #include "stm32f1xx_it.h"
  23:Core/Src/stm32f1xx_it.c **** /* Private includes ----------------------------------------------------------*/
  24:Core/Src/stm32f1xx_it.c **** /* USER CODE BEGIN Includes */
  25:Core/Src/stm32f1xx_it.c **** #include "ReceiveTransmit.h"
  26:Core/Src/stm32f1xx_it.c **** 
  27:Core/Src/stm32f1xx_it.c **** #include "initADC.h"
  28:Core/Src/stm32f1xx_it.c **** #include "Flash_io.h"
  29:Core/Src/stm32f1xx_it.c **** /* USER CODE END Includes */
  30:Core/Src/stm32f1xx_it.c **** 
  31:Core/Src/stm32f1xx_it.c **** /* Private typedef -----------------------------------------------------------*/
  32:Core/Src/stm32f1xx_it.c **** /* USER CODE BEGIN TD */
ARM GAS  C:\Users\az\AppData\Local\Temp\cc4tBB26.s 			page 2


  33:Core/Src/stm32f1xx_it.c **** /* USER CODE END PTD */
  34:Core/Src/stm32f1xx_it.c **** /* USER CODE END TD */
  35:Core/Src/stm32f1xx_it.c **** 
  36:Core/Src/stm32f1xx_it.c **** /* Private define ------------------------------------------------------------*/
  37:Core/Src/stm32f1xx_it.c **** /* USER CODE BEGIN PD */
  38:Core/Src/stm32f1xx_it.c **** 
  39:Core/Src/stm32f1xx_it.c **** /* USER CODE END PD */
  40:Core/Src/stm32f1xx_it.c **** 
  41:Core/Src/stm32f1xx_it.c **** /* Private macro -------------------------------------------------------------*/
  42:Core/Src/stm32f1xx_it.c **** /* USER CODE BEGIN PM */
  43:Core/Src/stm32f1xx_it.c **** 
  44:Core/Src/stm32f1xx_it.c **** /* USER CODE END PM */
  45:Core/Src/stm32f1xx_it.c **** 
  46:Core/Src/stm32f1xx_it.c **** /* Private variables ---------------------------------------------------------*/
  47:Core/Src/stm32f1xx_it.c **** /* USER CODE BEGIN PV */
  48:Core/Src/stm32f1xx_it.c **** 
  49:Core/Src/stm32f1xx_it.c **** /* USER CODE END PV */
  50:Core/Src/stm32f1xx_it.c **** 
  51:Core/Src/stm32f1xx_it.c **** /* Private function prototypes -----------------------------------------------*/
  52:Core/Src/stm32f1xx_it.c **** /* USER CODE BEGIN PFP */
  53:Core/Src/stm32f1xx_it.c **** 
  54:Core/Src/stm32f1xx_it.c **** /* USER CODE END PFP */
  55:Core/Src/stm32f1xx_it.c **** 
  56:Core/Src/stm32f1xx_it.c **** /* Private user code ---------------------------------------------------------*/
  57:Core/Src/stm32f1xx_it.c **** /* USER CODE BEGIN 0 */
  58:Core/Src/stm32f1xx_it.c **** 
  59:Core/Src/stm32f1xx_it.c **** /* USER CODE END 0 */
  60:Core/Src/stm32f1xx_it.c **** 
  61:Core/Src/stm32f1xx_it.c **** /* External variables --------------------------------------------------------*/
  62:Core/Src/stm32f1xx_it.c **** extern TIM_HandleTypeDef htim1;
  63:Core/Src/stm32f1xx_it.c **** extern TIM_HandleTypeDef htim2;
  64:Core/Src/stm32f1xx_it.c **** extern TIM_HandleTypeDef htim3;
  65:Core/Src/stm32f1xx_it.c **** extern TIM_HandleTypeDef htim4;
  66:Core/Src/stm32f1xx_it.c **** extern UART_HandleTypeDef huart2;
  67:Core/Src/stm32f1xx_it.c **** /* USER CODE BEGIN EV */
  68:Core/Src/stm32f1xx_it.c **** extern ADC_HandleTypeDef hadc1;
  69:Core/Src/stm32f1xx_it.c **** 
  70:Core/Src/stm32f1xx_it.c **** /* USER CODE END EV */
  71:Core/Src/stm32f1xx_it.c **** 
  72:Core/Src/stm32f1xx_it.c **** /******************************************************************************/
  73:Core/Src/stm32f1xx_it.c **** /*           Cortex-M3 Processor Interruption and Exception Handlers          */
  74:Core/Src/stm32f1xx_it.c **** /******************************************************************************/
  75:Core/Src/stm32f1xx_it.c **** /**
  76:Core/Src/stm32f1xx_it.c ****   * @brief This function handles Non maskable interrupt.
  77:Core/Src/stm32f1xx_it.c ****   */
  78:Core/Src/stm32f1xx_it.c **** void NMI_Handler(void)
  79:Core/Src/stm32f1xx_it.c **** {
  27              		.loc 1 79 1 view -0
  28              		.cfi_startproc
  29              		@ Volatile: function does not return.
  30              		@ args = 0, pretend = 0, frame = 0
  31              		@ frame_needed = 0, uses_anonymous_args = 0
  32              		@ link register save eliminated.
  33              	.L2:
  80:Core/Src/stm32f1xx_it.c ****   /* USER CODE BEGIN NonMaskableInt_IRQn 0 */
  81:Core/Src/stm32f1xx_it.c **** 
  82:Core/Src/stm32f1xx_it.c ****   /* USER CODE END NonMaskableInt_IRQn 0 */
ARM GAS  C:\Users\az\AppData\Local\Temp\cc4tBB26.s 			page 3


  83:Core/Src/stm32f1xx_it.c ****   /* USER CODE BEGIN NonMaskableInt_IRQn 1 */
  84:Core/Src/stm32f1xx_it.c ****   while (1)
  34              		.loc 1 84 3 discriminator 1 view .LVU1
  85:Core/Src/stm32f1xx_it.c ****   {
  86:Core/Src/stm32f1xx_it.c ****   }
  35              		.loc 1 86 3 discriminator 1 view .LVU2
  84:Core/Src/stm32f1xx_it.c ****   {
  36              		.loc 1 84 9 discriminator 1 view .LVU3
  37 0000 FEE7     		b	.L2
  38              		.cfi_endproc
  39              	.LFE65:
  41              		.section	.text.HardFault_Handler,"ax",%progbits
  42              		.align	1
  43              		.global	HardFault_Handler
  44              		.syntax unified
  45              		.thumb
  46              		.thumb_func
  48              	HardFault_Handler:
  49              	.LFB66:
  87:Core/Src/stm32f1xx_it.c ****   /* USER CODE END NonMaskableInt_IRQn 1 */
  88:Core/Src/stm32f1xx_it.c **** }
  89:Core/Src/stm32f1xx_it.c **** 
  90:Core/Src/stm32f1xx_it.c **** /**
  91:Core/Src/stm32f1xx_it.c ****   * @brief This function handles Hard fault interrupt.
  92:Core/Src/stm32f1xx_it.c ****   */
  93:Core/Src/stm32f1xx_it.c **** void HardFault_Handler(void)
  94:Core/Src/stm32f1xx_it.c **** {
  50              		.loc 1 94 1 view -0
  51              		.cfi_startproc
  52              		@ Volatile: function does not return.
  53              		@ args = 0, pretend = 0, frame = 0
  54              		@ frame_needed = 0, uses_anonymous_args = 0
  55              		@ link register save eliminated.
  56              	.L4:
  95:Core/Src/stm32f1xx_it.c ****   /* USER CODE BEGIN HardFault_IRQn 0 */
  96:Core/Src/stm32f1xx_it.c **** 
  97:Core/Src/stm32f1xx_it.c ****   /* USER CODE END HardFault_IRQn 0 */
  98:Core/Src/stm32f1xx_it.c ****   while (1)
  57              		.loc 1 98 3 discriminator 1 view .LVU5
  99:Core/Src/stm32f1xx_it.c ****   {
 100:Core/Src/stm32f1xx_it.c ****     /* USER CODE BEGIN W1_HardFault_IRQn 0 */
 101:Core/Src/stm32f1xx_it.c ****     /* USER CODE END W1_HardFault_IRQn 0 */
 102:Core/Src/stm32f1xx_it.c ****   }
  58              		.loc 1 102 3 discriminator 1 view .LVU6
  98:Core/Src/stm32f1xx_it.c ****   {
  59              		.loc 1 98 9 discriminator 1 view .LVU7
  60 0000 FEE7     		b	.L4
  61              		.cfi_endproc
  62              	.LFE66:
  64              		.section	.text.MemManage_Handler,"ax",%progbits
  65              		.align	1
  66              		.global	MemManage_Handler
  67              		.syntax unified
  68              		.thumb
  69              		.thumb_func
  71              	MemManage_Handler:
  72              	.LFB67:
ARM GAS  C:\Users\az\AppData\Local\Temp\cc4tBB26.s 			page 4


 103:Core/Src/stm32f1xx_it.c **** }
 104:Core/Src/stm32f1xx_it.c **** 
 105:Core/Src/stm32f1xx_it.c **** /**
 106:Core/Src/stm32f1xx_it.c ****   * @brief This function handles Memory management fault.
 107:Core/Src/stm32f1xx_it.c ****   */
 108:Core/Src/stm32f1xx_it.c **** void MemManage_Handler(void)
 109:Core/Src/stm32f1xx_it.c **** {
  73              		.loc 1 109 1 view -0
  74              		.cfi_startproc
  75              		@ Volatile: function does not return.
  76              		@ args = 0, pretend = 0, frame = 0
  77              		@ frame_needed = 0, uses_anonymous_args = 0
  78              		@ link register save eliminated.
  79              	.L6:
 110:Core/Src/stm32f1xx_it.c ****   /* USER CODE BEGIN MemoryManagement_IRQn 0 */
 111:Core/Src/stm32f1xx_it.c **** 
 112:Core/Src/stm32f1xx_it.c ****   /* USER CODE END MemoryManagement_IRQn 0 */
 113:Core/Src/stm32f1xx_it.c ****   while (1)
  80              		.loc 1 113 3 discriminator 1 view .LVU9
 114:Core/Src/stm32f1xx_it.c ****   {
 115:Core/Src/stm32f1xx_it.c ****     /* USER CODE BEGIN W1_MemoryManagement_IRQn 0 */
 116:Core/Src/stm32f1xx_it.c ****     /* USER CODE END W1_MemoryManagement_IRQn 0 */
 117:Core/Src/stm32f1xx_it.c ****   }
  81              		.loc 1 117 3 discriminator 1 view .LVU10
 113:Core/Src/stm32f1xx_it.c ****   {
  82              		.loc 1 113 9 discriminator 1 view .LVU11
  83 0000 FEE7     		b	.L6
  84              		.cfi_endproc
  85              	.LFE67:
  87              		.section	.text.BusFault_Handler,"ax",%progbits
  88              		.align	1
  89              		.global	BusFault_Handler
  90              		.syntax unified
  91              		.thumb
  92              		.thumb_func
  94              	BusFault_Handler:
  95              	.LFB68:
 118:Core/Src/stm32f1xx_it.c **** }
 119:Core/Src/stm32f1xx_it.c **** 
 120:Core/Src/stm32f1xx_it.c **** /**
 121:Core/Src/stm32f1xx_it.c ****   * @brief This function handles Prefetch fault, memory access fault.
 122:Core/Src/stm32f1xx_it.c ****   */
 123:Core/Src/stm32f1xx_it.c **** void BusFault_Handler(void)
 124:Core/Src/stm32f1xx_it.c **** {
  96              		.loc 1 124 1 view -0
  97              		.cfi_startproc
  98              		@ Volatile: function does not return.
  99              		@ args = 0, pretend = 0, frame = 0
 100              		@ frame_needed = 0, uses_anonymous_args = 0
 101              		@ link register save eliminated.
 102              	.L8:
 125:Core/Src/stm32f1xx_it.c ****   /* USER CODE BEGIN BusFault_IRQn 0 */
 126:Core/Src/stm32f1xx_it.c **** 
 127:Core/Src/stm32f1xx_it.c ****   /* USER CODE END BusFault_IRQn 0 */
 128:Core/Src/stm32f1xx_it.c ****   while (1)
 103              		.loc 1 128 3 discriminator 1 view .LVU13
 129:Core/Src/stm32f1xx_it.c ****   {
ARM GAS  C:\Users\az\AppData\Local\Temp\cc4tBB26.s 			page 5


 130:Core/Src/stm32f1xx_it.c ****     /* USER CODE BEGIN W1_BusFault_IRQn 0 */
 131:Core/Src/stm32f1xx_it.c ****     /* USER CODE END W1_BusFault_IRQn 0 */
 132:Core/Src/stm32f1xx_it.c ****   }
 104              		.loc 1 132 3 discriminator 1 view .LVU14
 128:Core/Src/stm32f1xx_it.c ****   {
 105              		.loc 1 128 9 discriminator 1 view .LVU15
 106 0000 FEE7     		b	.L8
 107              		.cfi_endproc
 108              	.LFE68:
 110              		.section	.text.UsageFault_Handler,"ax",%progbits
 111              		.align	1
 112              		.global	UsageFault_Handler
 113              		.syntax unified
 114              		.thumb
 115              		.thumb_func
 117              	UsageFault_Handler:
 118              	.LFB69:
 133:Core/Src/stm32f1xx_it.c **** }
 134:Core/Src/stm32f1xx_it.c **** 
 135:Core/Src/stm32f1xx_it.c **** /**
 136:Core/Src/stm32f1xx_it.c ****   * @brief This function handles Undefined instruction or illegal state.
 137:Core/Src/stm32f1xx_it.c ****   */
 138:Core/Src/stm32f1xx_it.c **** void UsageFault_Handler(void)
 139:Core/Src/stm32f1xx_it.c **** {
 119              		.loc 1 139 1 view -0
 120              		.cfi_startproc
 121              		@ Volatile: function does not return.
 122              		@ args = 0, pretend = 0, frame = 0
 123              		@ frame_needed = 0, uses_anonymous_args = 0
 124              		@ link register save eliminated.
 125              	.L10:
 140:Core/Src/stm32f1xx_it.c ****   /* USER CODE BEGIN UsageFault_IRQn 0 */
 141:Core/Src/stm32f1xx_it.c **** 
 142:Core/Src/stm32f1xx_it.c ****   /* USER CODE END UsageFault_IRQn 0 */
 143:Core/Src/stm32f1xx_it.c ****   while (1)
 126              		.loc 1 143 3 discriminator 1 view .LVU17
 144:Core/Src/stm32f1xx_it.c ****   {
 145:Core/Src/stm32f1xx_it.c ****     /* USER CODE BEGIN W1_UsageFault_IRQn 0 */
 146:Core/Src/stm32f1xx_it.c ****     /* USER CODE END W1_UsageFault_IRQn 0 */
 147:Core/Src/stm32f1xx_it.c ****   }
 127              		.loc 1 147 3 discriminator 1 view .LVU18
 143:Core/Src/stm32f1xx_it.c ****   {
 128              		.loc 1 143 9 discriminator 1 view .LVU19
 129 0000 FEE7     		b	.L10
 130              		.cfi_endproc
 131              	.LFE69:
 133              		.section	.text.SVC_Handler,"ax",%progbits
 134              		.align	1
 135              		.global	SVC_Handler
 136              		.syntax unified
 137              		.thumb
 138              		.thumb_func
 140              	SVC_Handler:
 141              	.LFB70:
 148:Core/Src/stm32f1xx_it.c **** }
 149:Core/Src/stm32f1xx_it.c **** 
 150:Core/Src/stm32f1xx_it.c **** /**
ARM GAS  C:\Users\az\AppData\Local\Temp\cc4tBB26.s 			page 6


 151:Core/Src/stm32f1xx_it.c ****   * @brief This function handles System service call via SWI instruction.
 152:Core/Src/stm32f1xx_it.c ****   */
 153:Core/Src/stm32f1xx_it.c **** void SVC_Handler(void)
 154:Core/Src/stm32f1xx_it.c **** {
 142              		.loc 1 154 1 view -0
 143              		.cfi_startproc
 144              		@ args = 0, pretend = 0, frame = 0
 145              		@ frame_needed = 0, uses_anonymous_args = 0
 146              		@ link register save eliminated.
 155:Core/Src/stm32f1xx_it.c ****   /* USER CODE BEGIN SVCall_IRQn 0 */
 156:Core/Src/stm32f1xx_it.c **** 
 157:Core/Src/stm32f1xx_it.c ****   /* USER CODE END SVCall_IRQn 0 */
 158:Core/Src/stm32f1xx_it.c ****   /* USER CODE BEGIN SVCall_IRQn 1 */
 159:Core/Src/stm32f1xx_it.c **** 
 160:Core/Src/stm32f1xx_it.c ****   /* USER CODE END SVCall_IRQn 1 */
 161:Core/Src/stm32f1xx_it.c **** }
 147              		.loc 1 161 1 view .LVU21
 148 0000 7047     		bx	lr
 149              		.cfi_endproc
 150              	.LFE70:
 152              		.section	.text.DebugMon_Handler,"ax",%progbits
 153              		.align	1
 154              		.global	DebugMon_Handler
 155              		.syntax unified
 156              		.thumb
 157              		.thumb_func
 159              	DebugMon_Handler:
 160              	.LFB71:
 162:Core/Src/stm32f1xx_it.c **** 
 163:Core/Src/stm32f1xx_it.c **** /**
 164:Core/Src/stm32f1xx_it.c ****   * @brief This function handles Debug monitor.
 165:Core/Src/stm32f1xx_it.c ****   */
 166:Core/Src/stm32f1xx_it.c **** void DebugMon_Handler(void)
 167:Core/Src/stm32f1xx_it.c **** {
 161              		.loc 1 167 1 view -0
 162              		.cfi_startproc
 163              		@ args = 0, pretend = 0, frame = 0
 164              		@ frame_needed = 0, uses_anonymous_args = 0
 165              		@ link register save eliminated.
 168:Core/Src/stm32f1xx_it.c ****   /* USER CODE BEGIN DebugMonitor_IRQn 0 */
 169:Core/Src/stm32f1xx_it.c **** 
 170:Core/Src/stm32f1xx_it.c ****   /* USER CODE END DebugMonitor_IRQn 0 */
 171:Core/Src/stm32f1xx_it.c ****   /* USER CODE BEGIN DebugMonitor_IRQn 1 */
 172:Core/Src/stm32f1xx_it.c **** 
 173:Core/Src/stm32f1xx_it.c ****   /* USER CODE END DebugMonitor_IRQn 1 */
 174:Core/Src/stm32f1xx_it.c **** }
 166              		.loc 1 174 1 view .LVU23
 167 0000 7047     		bx	lr
 168              		.cfi_endproc
 169              	.LFE71:
 171              		.section	.text.PendSV_Handler,"ax",%progbits
 172              		.align	1
 173              		.global	PendSV_Handler
 174              		.syntax unified
 175              		.thumb
 176              		.thumb_func
 178              	PendSV_Handler:
ARM GAS  C:\Users\az\AppData\Local\Temp\cc4tBB26.s 			page 7


 179              	.LFB72:
 175:Core/Src/stm32f1xx_it.c **** 
 176:Core/Src/stm32f1xx_it.c **** /**
 177:Core/Src/stm32f1xx_it.c ****   * @brief This function handles Pendable request for system service.
 178:Core/Src/stm32f1xx_it.c ****   */
 179:Core/Src/stm32f1xx_it.c **** void PendSV_Handler(void)
 180:Core/Src/stm32f1xx_it.c **** {
 180              		.loc 1 180 1 view -0
 181              		.cfi_startproc
 182              		@ args = 0, pretend = 0, frame = 0
 183              		@ frame_needed = 0, uses_anonymous_args = 0
 184              		@ link register save eliminated.
 181:Core/Src/stm32f1xx_it.c ****   /* USER CODE BEGIN PendSV_IRQn 0 */
 182:Core/Src/stm32f1xx_it.c **** 
 183:Core/Src/stm32f1xx_it.c ****   /* USER CODE END PendSV_IRQn 0 */
 184:Core/Src/stm32f1xx_it.c ****   /* USER CODE BEGIN PendSV_IRQn 1 */
 185:Core/Src/stm32f1xx_it.c **** 
 186:Core/Src/stm32f1xx_it.c ****   /* USER CODE END PendSV_IRQn 1 */
 187:Core/Src/stm32f1xx_it.c **** }
 185              		.loc 1 187 1 view .LVU25
 186 0000 7047     		bx	lr
 187              		.cfi_endproc
 188              	.LFE72:
 190              		.section	.text.SysTick_Handler,"ax",%progbits
 191              		.align	1
 192              		.global	SysTick_Handler
 193              		.syntax unified
 194              		.thumb
 195              		.thumb_func
 197              	SysTick_Handler:
 198              	.LFB73:
 188:Core/Src/stm32f1xx_it.c **** 
 189:Core/Src/stm32f1xx_it.c **** /**
 190:Core/Src/stm32f1xx_it.c ****   * @brief This function handles System tick timer.
 191:Core/Src/stm32f1xx_it.c ****   */
 192:Core/Src/stm32f1xx_it.c **** void SysTick_Handler(void)
 193:Core/Src/stm32f1xx_it.c **** {
 199              		.loc 1 193 1 view -0
 200              		.cfi_startproc
 201              		@ args = 0, pretend = 0, frame = 0
 202              		@ frame_needed = 0, uses_anonymous_args = 0
 203 0000 08B5     		push	{r3, lr}
 204              	.LCFI0:
 205              		.cfi_def_cfa_offset 8
 206              		.cfi_offset 3, -8
 207              		.cfi_offset 14, -4
 194:Core/Src/stm32f1xx_it.c ****   /* USER CODE BEGIN SysTick_IRQn 0 */
 195:Core/Src/stm32f1xx_it.c **** 
 196:Core/Src/stm32f1xx_it.c ****   /* USER CODE END SysTick_IRQn 0 */
 197:Core/Src/stm32f1xx_it.c ****   HAL_IncTick();
 208              		.loc 1 197 3 view .LVU27
 209 0002 FFF7FEFF 		bl	HAL_IncTick
 210              	.LVL0:
 198:Core/Src/stm32f1xx_it.c ****   /* USER CODE BEGIN SysTick_IRQn 1 */
 199:Core/Src/stm32f1xx_it.c **** 
 200:Core/Src/stm32f1xx_it.c ****   /* USER CODE END SysTick_IRQn 1 */
 201:Core/Src/stm32f1xx_it.c **** }
ARM GAS  C:\Users\az\AppData\Local\Temp\cc4tBB26.s 			page 8


 211              		.loc 1 201 1 is_stmt 0 view .LVU28
 212 0006 08BD     		pop	{r3, pc}
 213              		.cfi_endproc
 214              	.LFE73:
 216              		.section	.text.EXTI3_IRQHandler,"ax",%progbits
 217              		.align	1
 218              		.global	EXTI3_IRQHandler
 219              		.syntax unified
 220              		.thumb
 221              		.thumb_func
 223              	EXTI3_IRQHandler:
 224              	.LFB74:
 202:Core/Src/stm32f1xx_it.c **** 
 203:Core/Src/stm32f1xx_it.c **** /******************************************************************************/
 204:Core/Src/stm32f1xx_it.c **** /* STM32F1xx Peripheral Interrupt Handlers                                    */
 205:Core/Src/stm32f1xx_it.c **** /* Add here the Interrupt Handlers for the used peripherals.                  */
 206:Core/Src/stm32f1xx_it.c **** /* For the available peripheral interrupt handler names,                      */
 207:Core/Src/stm32f1xx_it.c **** /* please refer to the startup file (startup_stm32f1xx.s).                    */
 208:Core/Src/stm32f1xx_it.c **** /******************************************************************************/
 209:Core/Src/stm32f1xx_it.c **** 
 210:Core/Src/stm32f1xx_it.c **** /**
 211:Core/Src/stm32f1xx_it.c ****   * @brief This function handles EXTI line3 interrupt.
 212:Core/Src/stm32f1xx_it.c ****   */
 213:Core/Src/stm32f1xx_it.c **** void EXTI3_IRQHandler(void)
 214:Core/Src/stm32f1xx_it.c **** {
 225              		.loc 1 214 1 is_stmt 1 view -0
 226              		.cfi_startproc
 227              		@ args = 0, pretend = 0, frame = 0
 228              		@ frame_needed = 0, uses_anonymous_args = 0
 229 0000 08B5     		push	{r3, lr}
 230              	.LCFI1:
 231              		.cfi_def_cfa_offset 8
 232              		.cfi_offset 3, -8
 233              		.cfi_offset 14, -4
 215:Core/Src/stm32f1xx_it.c ****   /* USER CODE BEGIN EXTI3_IRQn 0 */
 216:Core/Src/stm32f1xx_it.c **** 
 217:Core/Src/stm32f1xx_it.c ****   /* USER CODE END EXTI3_IRQn 0 */
 218:Core/Src/stm32f1xx_it.c ****   HAL_GPIO_EXTI_IRQHandler(GPIO_PIN_3);
 234              		.loc 1 218 3 view .LVU30
 235 0002 0820     		movs	r0, #8
 236 0004 FFF7FEFF 		bl	HAL_GPIO_EXTI_IRQHandler
 237              	.LVL1:
 219:Core/Src/stm32f1xx_it.c ****   /* USER CODE BEGIN EXTI3_IRQn 1 */
 220:Core/Src/stm32f1xx_it.c **** 
 221:Core/Src/stm32f1xx_it.c ****   /* USER CODE END EXTI3_IRQn 1 */
 222:Core/Src/stm32f1xx_it.c **** }
 238              		.loc 1 222 1 is_stmt 0 view .LVU31
 239 0008 08BD     		pop	{r3, pc}
 240              		.cfi_endproc
 241              	.LFE74:
 243              		.global	__aeabi_ui2f
 244              		.global	__aeabi_fmul
 245              		.global	__aeabi_fsub
 246              		.global	__aeabi_fdiv
 247              		.global	__aeabi_fadd
 248              		.section	.text.TIM1_UP_IRQHandler,"ax",%progbits
 249              		.align	1
ARM GAS  C:\Users\az\AppData\Local\Temp\cc4tBB26.s 			page 9


 250              		.global	TIM1_UP_IRQHandler
 251              		.syntax unified
 252              		.thumb
 253              		.thumb_func
 255              	TIM1_UP_IRQHandler:
 256              	.LFB75:
 223:Core/Src/stm32f1xx_it.c **** 
 224:Core/Src/stm32f1xx_it.c **** /**
 225:Core/Src/stm32f1xx_it.c ****   * @brief This function handles TIM1 update interrupt.
 226:Core/Src/stm32f1xx_it.c ****   */
 227:Core/Src/stm32f1xx_it.c **** void TIM1_UP_IRQHandler(void)
 228:Core/Src/stm32f1xx_it.c **** {
 257              		.loc 1 228 1 is_stmt 1 view -0
 258              		.cfi_startproc
 259              		@ args = 0, pretend = 0, frame = 0
 260              		@ frame_needed = 0, uses_anonymous_args = 0
 261 0000 38B5     		push	{r3, r4, r5, lr}
 262              	.LCFI2:
 263              		.cfi_def_cfa_offset 16
 264              		.cfi_offset 3, -16
 265              		.cfi_offset 4, -12
 266              		.cfi_offset 5, -8
 267              		.cfi_offset 14, -4
 229:Core/Src/stm32f1xx_it.c ****   /* USER CODE BEGIN TIM1_UP_IRQn 0 */
 230:Core/Src/stm32f1xx_it.c ****   HAL_GPIO_TogglePin(GPIOC, GPIO_PIN_13);
 268              		.loc 1 230 3 view .LVU33
 269 0002 4FF40051 		mov	r1, #8192
 270 0006 1D48     		ldr	r0, .L23
 271 0008 FFF7FEFF 		bl	HAL_GPIO_TogglePin
 272              	.LVL2:
 231:Core/Src/stm32f1xx_it.c ****   storeParametersToFlash();
 273              		.loc 1 231 3 view .LVU34
 274 000c FFF7FEFF 		bl	storeParametersToFlash
 275              	.LVL3:
 232:Core/Src/stm32f1xx_it.c **** 
 233:Core/Src/stm32f1xx_it.c ****   uint16_t parameterADC = 0;
 276              		.loc 1 233 3 view .LVU35
 234:Core/Src/stm32f1xx_it.c ****   float tV_25 = 1.34;
 277              		.loc 1 234 3 view .LVU36
 235:Core/Src/stm32f1xx_it.c ****   float tSlope = 0.0065;
 278              		.loc 1 235 3 view .LVU37
 236:Core/Src/stm32f1xx_it.c ****   float Vref = 3.3;
 279              		.loc 1 236 3 view .LVU38
 237:Core/Src/stm32f1xx_it.c **** 
 238:Core/Src/stm32f1xx_it.c ****   HAL_ADC_Start(&hadc1);
 280              		.loc 1 238 3 view .LVU39
 281 0010 1B4C     		ldr	r4, .L23+4
 282 0012 2046     		mov	r0, r4
 283 0014 FFF7FEFF 		bl	HAL_ADC_Start
 284              	.LVL4:
 239:Core/Src/stm32f1xx_it.c ****   if (HAL_ADC_PollForConversion(&hadc1, 100) == HAL_OK) // –û–∂–∏–¥–∞–Ω–∏–µ –∑–∞–≤–µ—Ä—à–µ–Ω–∏—è –ø
 285              		.loc 1 239 3 view .LVU40
 286              		.loc 1 239 7 is_stmt 0 view .LVU41
 287 0018 6421     		movs	r1, #100
 288 001a 2046     		mov	r0, r4
 289 001c FFF7FEFF 		bl	HAL_ADC_PollForConversion
 290              	.LVL5:
ARM GAS  C:\Users\az\AppData\Local\Temp\cc4tBB26.s 			page 10


 291              		.loc 1 239 6 view .LVU42
 292 0020 10B3     		cbz	r0, .L22
 233:Core/Src/stm32f1xx_it.c ****   float tV_25 = 1.34;
 293              		.loc 1 233 12 view .LVU43
 294 0022 0024     		movs	r4, #0
 295              	.LVL6:
 296              	.L19:
 240:Core/Src/stm32f1xx_it.c ****   {
 241:Core/Src/stm32f1xx_it.c ****     parameterADC = HAL_ADC_GetValue(&hadc1); // –°—á–∏—Ç—ã–≤–∞–Ω–∏–µ —Å –ê–¶–ü.
 242:Core/Src/stm32f1xx_it.c ****     HAL_ADC_Stop(&hadc1);                    // –û—Å—Ç–∞–Ω–æ–≤–∫–∞ –ê–¶–ü.
 243:Core/Src/stm32f1xx_it.c ****   }
 244:Core/Src/stm32f1xx_it.c ****   float voltageADC = (float)parameterADC / 4096 * Vref; // –ù–∞–ø—Ä—è–∂–µ–Ω–∏–µ –≤ –≤–æ–ª—å—Ç–∞—Ö –
 297              		.loc 1 244 3 is_stmt 1 view .LVU44
 298              		.loc 1 244 22 is_stmt 0 view .LVU45
 299 0024 2046     		mov	r0, r4
 300 0026 FFF7FEFF 		bl	__aeabi_ui2f
 301              	.LVL7:
 302              		.loc 1 244 42 view .LVU46
 303 002a 4FF06651 		mov	r1, #964689920
 304 002e FFF7FEFF 		bl	__aeabi_fmul
 305              	.LVL8:
 306              		.loc 1 244 9 view .LVU47
 307 0032 1449     		ldr	r1, .L23+8
 308 0034 FFF7FEFF 		bl	__aeabi_fmul
 309              	.LVL9:
 310 0038 0446     		mov	r4, r0
 311              	.LVL10:
 245:Core/Src/stm32f1xx_it.c ****   float tempSTM32 = (tV_25 - voltageADC) / tSlope + 25; // –¢–µ–º–ø–µ—Ä–∞—Ç—É—Ä–∞ –≤ –≥—Ä–∞–¥—É—Å–∞
 312              		.loc 1 245 3 is_stmt 1 view .LVU48
 313              		.loc 1 245 28 is_stmt 0 view .LVU49
 314 003a 0146     		mov	r1, r0
 315 003c 1248     		ldr	r0, .L23+12
 316              	.LVL11:
 317              		.loc 1 245 28 view .LVU50
 318 003e FFF7FEFF 		bl	__aeabi_fsub
 319              	.LVL12:
 320              		.loc 1 245 42 view .LVU51
 321 0042 1249     		ldr	r1, .L23+16
 322 0044 FFF7FEFF 		bl	__aeabi_fdiv
 323              	.LVL13:
 324              		.loc 1 245 9 view .LVU52
 325 0048 1149     		ldr	r1, .L23+20
 326 004a FFF7FEFF 		bl	__aeabi_fadd
 327              	.LVL14:
 328 004e 0546     		mov	r5, r0
 329              	.LVL15:
 246:Core/Src/stm32f1xx_it.c **** 
 247:Core/Src/stm32f1xx_it.c ****   dataTransmitMB_float(vrefCPU_STM32, voltageADC);
 330              		.loc 1 247 3 is_stmt 1 view .LVU53
 331 0050 2146     		mov	r1, r4
 332 0052 0A20     		movs	r0, #10
 333              	.LVL16:
 334              		.loc 1 247 3 is_stmt 0 view .LVU54
 335 0054 FFF7FEFF 		bl	dataTransmitMB_float
 336              	.LVL17:
 248:Core/Src/stm32f1xx_it.c ****   dataTransmitMB_float(tempCPU_STM32, tempSTM32);
 337              		.loc 1 248 3 is_stmt 1 view .LVU55
ARM GAS  C:\Users\az\AppData\Local\Temp\cc4tBB26.s 			page 11


 338 0058 2946     		mov	r1, r5
 339 005a 0C20     		movs	r0, #12
 340 005c FFF7FEFF 		bl	dataTransmitMB_float
 341              	.LVL18:
 249:Core/Src/stm32f1xx_it.c ****   /* USER CODE END TIM1_UP_IRQn 0 */
 250:Core/Src/stm32f1xx_it.c ****   HAL_TIM_IRQHandler(&htim1);
 342              		.loc 1 250 3 view .LVU56
 343 0060 0C48     		ldr	r0, .L23+24
 344 0062 FFF7FEFF 		bl	HAL_TIM_IRQHandler
 345              	.LVL19:
 251:Core/Src/stm32f1xx_it.c ****   /* USER CODE BEGIN TIM1_UP_IRQn 1 */
 252:Core/Src/stm32f1xx_it.c **** 
 253:Core/Src/stm32f1xx_it.c ****   /* USER CODE END TIM1_UP_IRQn 1 */
 254:Core/Src/stm32f1xx_it.c **** }
 346              		.loc 1 254 1 is_stmt 0 view .LVU57
 347 0066 38BD     		pop	{r3, r4, r5, pc}
 348              	.LVL20:
 349              	.L22:
 241:Core/Src/stm32f1xx_it.c ****     HAL_ADC_Stop(&hadc1);                    // –û—Å—Ç–∞–Ω–æ–≤–∫–∞ –ê–¶–ü.
 350              		.loc 1 241 5 is_stmt 1 view .LVU58
 241:Core/Src/stm32f1xx_it.c ****     HAL_ADC_Stop(&hadc1);                    // –û—Å—Ç–∞–Ω–æ–≤–∫–∞ –ê–¶–ü.
 351              		.loc 1 241 20 is_stmt 0 view .LVU59
 352 0068 2546     		mov	r5, r4
 353 006a 2046     		mov	r0, r4
 354 006c FFF7FEFF 		bl	HAL_ADC_GetValue
 355              	.LVL21:
 241:Core/Src/stm32f1xx_it.c ****     HAL_ADC_Stop(&hadc1);                    // –û—Å—Ç–∞–Ω–æ–≤–∫–∞ –ê–¶–ü.
 356              		.loc 1 241 18 view .LVU60
 357 0070 84B2     		uxth	r4, r0
 358              	.LVL22:
 242:Core/Src/stm32f1xx_it.c ****   }
 359              		.loc 1 242 5 is_stmt 1 view .LVU61
 360 0072 2846     		mov	r0, r5
 361 0074 FFF7FEFF 		bl	HAL_ADC_Stop
 362              	.LVL23:
 363 0078 D4E7     		b	.L19
 364              	.L24:
 365 007a 00BF     		.align	2
 366              	.L23:
 367 007c 00100140 		.word	1073811456
 368 0080 00000000 		.word	hadc1
 369 0084 33335340 		.word	1079194419
 370 0088 1F85AB3F 		.word	1068205343
 371 008c F4FDD43B 		.word	1003814388
 372 0090 0000C841 		.word	1103626240
 373 0094 00000000 		.word	htim1
 374              		.cfi_endproc
 375              	.LFE75:
 377              		.section	.text.TIM2_IRQHandler,"ax",%progbits
 378              		.align	1
 379              		.global	TIM2_IRQHandler
 380              		.syntax unified
 381              		.thumb
 382              		.thumb_func
 384              	TIM2_IRQHandler:
 385              	.LFB76:
 255:Core/Src/stm32f1xx_it.c **** 
ARM GAS  C:\Users\az\AppData\Local\Temp\cc4tBB26.s 			page 12


 256:Core/Src/stm32f1xx_it.c **** /**
 257:Core/Src/stm32f1xx_it.c ****   * @brief This function handles TIM2 global interrupt.
 258:Core/Src/stm32f1xx_it.c ****   */
 259:Core/Src/stm32f1xx_it.c **** void TIM2_IRQHandler(void)
 260:Core/Src/stm32f1xx_it.c **** {
 386              		.loc 1 260 1 view -0
 387              		.cfi_startproc
 388              		@ args = 0, pretend = 0, frame = 0
 389              		@ frame_needed = 0, uses_anonymous_args = 0
 390 0000 08B5     		push	{r3, lr}
 391              	.LCFI3:
 392              		.cfi_def_cfa_offset 8
 393              		.cfi_offset 3, -8
 394              		.cfi_offset 14, -4
 261:Core/Src/stm32f1xx_it.c ****   /* USER CODE BEGIN TIM2_IRQn 0 */
 262:Core/Src/stm32f1xx_it.c ****   // ADC_chanel_(GPIO_PIN_12);
 263:Core/Src/stm32f1xx_it.c ****   /* USER CODE END TIM2_IRQn 0 */
 264:Core/Src/stm32f1xx_it.c ****   HAL_TIM_IRQHandler(&htim2);
 395              		.loc 1 264 3 view .LVU63
 396 0002 0248     		ldr	r0, .L27
 397 0004 FFF7FEFF 		bl	HAL_TIM_IRQHandler
 398              	.LVL24:
 265:Core/Src/stm32f1xx_it.c ****   /* USER CODE BEGIN TIM2_IRQn 1 */
 266:Core/Src/stm32f1xx_it.c **** 
 267:Core/Src/stm32f1xx_it.c ****   /* USER CODE END TIM2_IRQn 1 */
 268:Core/Src/stm32f1xx_it.c **** }
 399              		.loc 1 268 1 is_stmt 0 view .LVU64
 400 0008 08BD     		pop	{r3, pc}
 401              	.L28:
 402 000a 00BF     		.align	2
 403              	.L27:
 404 000c 00000000 		.word	htim2
 405              		.cfi_endproc
 406              	.LFE76:
 408              		.section	.text.TIM3_IRQHandler,"ax",%progbits
 409              		.align	1
 410              		.global	TIM3_IRQHandler
 411              		.syntax unified
 412              		.thumb
 413              		.thumb_func
 415              	TIM3_IRQHandler:
 416              	.LFB77:
 269:Core/Src/stm32f1xx_it.c **** 
 270:Core/Src/stm32f1xx_it.c **** /**
 271:Core/Src/stm32f1xx_it.c ****   * @brief This function handles TIM3 global interrupt.
 272:Core/Src/stm32f1xx_it.c ****   */
 273:Core/Src/stm32f1xx_it.c **** void TIM3_IRQHandler(void)
 274:Core/Src/stm32f1xx_it.c **** {
 417              		.loc 1 274 1 is_stmt 1 view -0
 418              		.cfi_startproc
 419              		@ args = 0, pretend = 0, frame = 0
 420              		@ frame_needed = 0, uses_anonymous_args = 0
 421 0000 08B5     		push	{r3, lr}
 422              	.LCFI4:
 423              		.cfi_def_cfa_offset 8
 424              		.cfi_offset 3, -8
 425              		.cfi_offset 14, -4
ARM GAS  C:\Users\az\AppData\Local\Temp\cc4tBB26.s 			page 13


 275:Core/Src/stm32f1xx_it.c ****   /* USER CODE BEGIN TIM3_IRQn 0 */
 276:Core/Src/stm32f1xx_it.c ****   ADC_chanel(GPIO_PIN_11);
 426              		.loc 1 276 3 view .LVU66
 427 0002 4FF40060 		mov	r0, #2048
 428 0006 FFF7FEFF 		bl	ADC_chanel
 429              	.LVL25:
 277:Core/Src/stm32f1xx_it.c ****   ADC_chanel_(GPIO_PIN_1);
 430              		.loc 1 277 3 view .LVU67
 431 000a 0220     		movs	r0, #2
 432 000c FFF7FEFF 		bl	ADC_chanel_
 433              	.LVL26:
 278:Core/Src/stm32f1xx_it.c ****   /* USER CODE END TIM3_IRQn 0 */
 279:Core/Src/stm32f1xx_it.c ****   HAL_TIM_IRQHandler(&htim3);
 434              		.loc 1 279 3 view .LVU68
 435 0010 0148     		ldr	r0, .L31
 436 0012 FFF7FEFF 		bl	HAL_TIM_IRQHandler
 437              	.LVL27:
 280:Core/Src/stm32f1xx_it.c ****   /* USER CODE BEGIN TIM3_IRQn 1 */
 281:Core/Src/stm32f1xx_it.c **** 
 282:Core/Src/stm32f1xx_it.c ****   /* USER CODE END TIM3_IRQn 1 */
 283:Core/Src/stm32f1xx_it.c **** }
 438              		.loc 1 283 1 is_stmt 0 view .LVU69
 439 0016 08BD     		pop	{r3, pc}
 440              	.L32:
 441              		.align	2
 442              	.L31:
 443 0018 00000000 		.word	htim3
 444              		.cfi_endproc
 445              	.LFE77:
 447              		.section	.text.TIM4_IRQHandler,"ax",%progbits
 448              		.align	1
 449              		.global	TIM4_IRQHandler
 450              		.syntax unified
 451              		.thumb
 452              		.thumb_func
 454              	TIM4_IRQHandler:
 455              	.LFB78:
 284:Core/Src/stm32f1xx_it.c **** 
 285:Core/Src/stm32f1xx_it.c **** /**
 286:Core/Src/stm32f1xx_it.c ****   * @brief This function handles TIM4 global interrupt.
 287:Core/Src/stm32f1xx_it.c ****   */
 288:Core/Src/stm32f1xx_it.c **** void TIM4_IRQHandler(void)
 289:Core/Src/stm32f1xx_it.c **** {
 456              		.loc 1 289 1 is_stmt 1 view -0
 457              		.cfi_startproc
 458              		@ args = 0, pretend = 0, frame = 0
 459              		@ frame_needed = 0, uses_anonymous_args = 0
 460 0000 08B5     		push	{r3, lr}
 461              	.LCFI5:
 462              		.cfi_def_cfa_offset 8
 463              		.cfi_offset 3, -8
 464              		.cfi_offset 14, -4
 290:Core/Src/stm32f1xx_it.c ****   /* USER CODE BEGIN TIM4_IRQn 0 */
 291:Core/Src/stm32f1xx_it.c **** 
 292:Core/Src/stm32f1xx_it.c ****   /* USER CODE END TIM4_IRQn 0 */
 293:Core/Src/stm32f1xx_it.c ****   HAL_TIM_IRQHandler(&htim4);
 465              		.loc 1 293 3 view .LVU71
ARM GAS  C:\Users\az\AppData\Local\Temp\cc4tBB26.s 			page 14


 466 0002 0248     		ldr	r0, .L35
 467 0004 FFF7FEFF 		bl	HAL_TIM_IRQHandler
 468              	.LVL28:
 294:Core/Src/stm32f1xx_it.c ****   /* USER CODE BEGIN TIM4_IRQn 1 */
 295:Core/Src/stm32f1xx_it.c **** 
 296:Core/Src/stm32f1xx_it.c ****   /* USER CODE END TIM4_IRQn 1 */
 297:Core/Src/stm32f1xx_it.c **** }
 469              		.loc 1 297 1 is_stmt 0 view .LVU72
 470 0008 08BD     		pop	{r3, pc}
 471              	.L36:
 472 000a 00BF     		.align	2
 473              	.L35:
 474 000c 00000000 		.word	htim4
 475              		.cfi_endproc
 476              	.LFE78:
 478              		.section	.text.USART2_IRQHandler,"ax",%progbits
 479              		.align	1
 480              		.global	USART2_IRQHandler
 481              		.syntax unified
 482              		.thumb
 483              		.thumb_func
 485              	USART2_IRQHandler:
 486              	.LFB79:
 298:Core/Src/stm32f1xx_it.c **** 
 299:Core/Src/stm32f1xx_it.c **** /**
 300:Core/Src/stm32f1xx_it.c ****   * @brief This function handles USART2 global interrupt.
 301:Core/Src/stm32f1xx_it.c ****   */
 302:Core/Src/stm32f1xx_it.c **** void USART2_IRQHandler(void)
 303:Core/Src/stm32f1xx_it.c **** {
 487              		.loc 1 303 1 is_stmt 1 view -0
 488              		.cfi_startproc
 489              		@ args = 0, pretend = 0, frame = 0
 490              		@ frame_needed = 0, uses_anonymous_args = 0
 491 0000 08B5     		push	{r3, lr}
 492              	.LCFI6:
 493              		.cfi_def_cfa_offset 8
 494              		.cfi_offset 3, -8
 495              		.cfi_offset 14, -4
 304:Core/Src/stm32f1xx_it.c ****   /* USER CODE BEGIN USART2_IRQn 0 */
 305:Core/Src/stm32f1xx_it.c **** 
 306:Core/Src/stm32f1xx_it.c ****   /* USER CODE END USART2_IRQn 0 */
 307:Core/Src/stm32f1xx_it.c ****   HAL_UART_IRQHandler(&huart2);
 496              		.loc 1 307 3 view .LVU74
 497 0002 0248     		ldr	r0, .L39
 498 0004 FFF7FEFF 		bl	HAL_UART_IRQHandler
 499              	.LVL29:
 308:Core/Src/stm32f1xx_it.c ****   /* USER CODE BEGIN USART2_IRQn 1 */
 309:Core/Src/stm32f1xx_it.c **** 
 310:Core/Src/stm32f1xx_it.c ****   /* USER CODE END USART2_IRQn 1 */
 311:Core/Src/stm32f1xx_it.c **** }
 500              		.loc 1 311 1 is_stmt 0 view .LVU75
 501 0008 08BD     		pop	{r3, pc}
 502              	.L40:
 503 000a 00BF     		.align	2
 504              	.L39:
 505 000c 00000000 		.word	huart2
 506              		.cfi_endproc
ARM GAS  C:\Users\az\AppData\Local\Temp\cc4tBB26.s 			page 15


 507              	.LFE79:
 509              		.section	.text.EXTI15_10_IRQHandler,"ax",%progbits
 510              		.align	1
 511              		.global	EXTI15_10_IRQHandler
 512              		.syntax unified
 513              		.thumb
 514              		.thumb_func
 516              	EXTI15_10_IRQHandler:
 517              	.LFB80:
 312:Core/Src/stm32f1xx_it.c **** 
 313:Core/Src/stm32f1xx_it.c **** /**
 314:Core/Src/stm32f1xx_it.c ****   * @brief This function handles EXTI line[15:10] interrupts.
 315:Core/Src/stm32f1xx_it.c ****   */
 316:Core/Src/stm32f1xx_it.c **** void EXTI15_10_IRQHandler(void)
 317:Core/Src/stm32f1xx_it.c **** {
 518              		.loc 1 317 1 is_stmt 1 view -0
 519              		.cfi_startproc
 520              		@ args = 0, pretend = 0, frame = 0
 521              		@ frame_needed = 0, uses_anonymous_args = 0
 522 0000 08B5     		push	{r3, lr}
 523              	.LCFI7:
 524              		.cfi_def_cfa_offset 8
 525              		.cfi_offset 3, -8
 526              		.cfi_offset 14, -4
 318:Core/Src/stm32f1xx_it.c ****   /* USER CODE BEGIN EXTI15_10_IRQn 0 */
 319:Core/Src/stm32f1xx_it.c **** 
 320:Core/Src/stm32f1xx_it.c ****   /* USER CODE END EXTI15_10_IRQn 0 */
 321:Core/Src/stm32f1xx_it.c ****   HAL_GPIO_EXTI_IRQHandler(GPIO_PIN_11);
 527              		.loc 1 321 3 view .LVU77
 528 0002 4FF40060 		mov	r0, #2048
 529 0006 FFF7FEFF 		bl	HAL_GPIO_EXTI_IRQHandler
 530              	.LVL30:
 322:Core/Src/stm32f1xx_it.c ****   /* USER CODE BEGIN EXTI15_10_IRQn 1 */
 323:Core/Src/stm32f1xx_it.c **** 
 324:Core/Src/stm32f1xx_it.c ****   /* USER CODE END EXTI15_10_IRQn 1 */
 325:Core/Src/stm32f1xx_it.c **** }
 531              		.loc 1 325 1 is_stmt 0 view .LVU78
 532 000a 08BD     		pop	{r3, pc}
 533              		.cfi_endproc
 534              	.LFE80:
 536              		.text
 537              	.Letext0:
 538              		.file 2 "c:\\vscodeide\\software\\armembeddedgcc\\arm-none-eabi\\include\\machine\\_default_types.
 539              		.file 3 "c:\\vscodeide\\software\\armembeddedgcc\\arm-none-eabi\\include\\sys\\_stdint.h"
 540              		.file 4 "Drivers/CMSIS/Device/ST/STM32F1xx/Include/stm32f103xb.h"
 541              		.file 5 "Drivers/CMSIS/Device/ST/STM32F1xx/Include/stm32f1xx.h"
 542              		.file 6 "Drivers/STM32F1xx_HAL_Driver/Inc/stm32f1xx_hal_def.h"
 543              		.file 7 "Drivers/STM32F1xx_HAL_Driver/Inc/stm32f1xx_hal_dma.h"
 544              		.file 8 "Drivers/STM32F1xx_HAL_Driver/Inc/stm32f1xx_hal_adc.h"
 545              		.file 9 "Drivers/STM32F1xx_HAL_Driver/Inc/stm32f1xx_hal_tim.h"
 546              		.file 10 "Drivers/STM32F1xx_HAL_Driver/Inc/stm32f1xx_hal_uart.h"
 547              		.file 11 "Drivers/STM32F1xx_HAL_Driver/Inc/stm32f1xx_hal_gpio.h"
 548              		.file 12 "Drivers/AD7793/initADC.h"
 549              		.file 13 "Drivers/Flash/Flash_io.h"
 550              		.file 14 "Drivers/FreeModbus/ReceiveTransmit/ReceiveTransmit.h"
 551              		.file 15 "Drivers/STM32F1xx_HAL_Driver/Inc/stm32f1xx_hal.h"
ARM GAS  C:\Users\az\AppData\Local\Temp\cc4tBB26.s 			page 16

